; generated by ARM C/C++ Compiler with , RVCT4.0 [Build 524] for uVision
; commandline ArmCC [--split_sections --debug -c --asm --interleave -o.\Obj\my_stm32f10x_tftlcd.o --depend=.\Obj\my_stm32f10x_tftlcd.d --device=DARMSTM --apcs=interwork -O3 -I..\..\User\inc -I..\..\Libraries\STM32F10x_StdPeriph_Driver\inc -I..\..\Libraries\CMSIS\CM3\CoreSupport -I..\..\Libraries\CMSIS\CM3\DeviceSupport\ST\STM32F10x -I..\..\My_Libraries\inc -IE:\keil_MDK\ARM\INC\ST\STM32F10x -D__MICROLIB -DSTM32F10X_HD -DUSE_STDPERIPH_DRIVER --omf_browse=.\Obj\my_stm32f10x_tftlcd.crf ..\..\My_Libraries\src\my_stm32f10x_tftlcd.c]
                          THUMB

                          AREA ||i.LCD_Clear||, CODE, READONLY, ALIGN=2

                  LCD_Clear PROC
;;;216    */
;;;217    void LCD_Clear(uint16_t Color)
000000  b530              PUSH     {r4,r5,lr}
;;;218    {
;;;219    	uint32_t index = 0;
000002  2400              MOVS     r4,#0
000004  4605              MOV      r5,r0                 ;218
;;;220    
;;;221    	LCD_SetCursor(0, 0);	/* 设置光标位置 */
000006  4621              MOV      r1,r4
000008  4620              MOV      r0,r4
00000a  f7fffffe          BL       LCD_SetCursor
00000e  f2402102          MOV      r1,#0x202
000012  f04f40d8          MOV      r0,#0x6c000000
000016  8001              STRH     r1,[r0,#0]
;;;222    
;;;223    	LCD_WriteRAM_Prepare(); 	/* 准备写显存 */
;;;224    
;;;225    	for (index = 0; index < 400 * 240; index++)
000018  4902              LDR      r1,|L1.36|
                  |L1.26|
;;;226    	{
;;;227    		LCD->LCD_RAM = Color;
00001a  8045              STRH     r5,[r0,#2]
00001c  1c64              ADDS     r4,r4,#1              ;225
00001e  428c              CMP      r4,r1                 ;225
000020  d3fb              BCC      |L1.26|
;;;228    	}
;;;229    }
000022  bd30              POP      {r4,r5,pc}
;;;230    
                          ENDP

                  |L1.36|
                          DCD      0x00017700

                          AREA ||i.LCD_ClearLine||, CODE, READONLY, ALIGN=2

                  LCD_ClearLine PROC
;;;205    */
;;;206    void LCD_ClearLine(uint8_t Line)
000000  4601              MOV      r1,r0
;;;207    {
;;;208    	LCD_DisplayString(0, Line, "                         ");
000002  a202              ADR      r2,|L2.12|
000004  2000              MOVS     r0,#0
000006  f7ffbffe          B.W      LCD_DisplayString
;;;209    }
;;;210    
                          ENDP

00000a  0000              DCW      0x0000
                  |L2.12|
00000c  2020202020202020202020202020202020202020202020202000        DCB      "                         ",0
000026  00                DCB      0
000027  00                DCB      0

                          AREA ||i.LCD_CtrlLinesConfig||, CODE, READONLY, ALIGN=2

                  LCD_CtrlLinesConfig PROC
;;;747    */
;;;748    static void LCD_CtrlLinesConfig(void)
000000  b538              PUSH     {r3-r5,lr}
;;;749    {
;;;750      GPIO_InitTypeDef GPIO_InitStructure;
;;;751    
;;;752      /* 使能 FSMC, GPIOD, GPIOE, GPIOF, GPIOG 和 AFIO 时钟 */
;;;753      RCC_AHBPeriphClockCmd(RCC_AHBPeriph_FSMC, ENABLE);
000002  2101              MOVS     r1,#1
000004  0208              LSLS     r0,r1,#8
000006  f7fffffe          BL       RCC_AHBPeriphClockCmd
;;;754    
;;;755      RCC_APB2PeriphClockCmd(RCC_APB2Periph_GPIOD | RCC_APB2Periph_GPIOE |
00000a  2101              MOVS     r1,#1
00000c  f24010e1          MOV      r0,#0x1e1
000010  f7fffffe          BL       RCC_APB2PeriphClockCmd
;;;756                             RCC_APB2Periph_GPIOF | RCC_APB2Periph_GPIOG |
;;;757                             RCC_APB2Periph_AFIO, ENABLE);
;;;758    
;;;759      /* 设置 PD.00(D2), PD.01(D3), PD.04(NOE), PD.05(NWE), PD.08(D13), PD.09(D14),
;;;760         PD.10(D15), PD.14(D0), PD.15(D1) 为复用推挽输出 */
;;;761      GPIO_InitStructure.GPIO_Pin = GPIO_Pin_0 | GPIO_Pin_1 | GPIO_Pin_4 | GPIO_Pin_5 |
000014  f24c7033          MOV      r0,#0xc733
000018  f8ad0000          STRH     r0,[sp,#0]
;;;762                                    GPIO_Pin_8 | GPIO_Pin_9 | GPIO_Pin_10 | GPIO_Pin_14 |
;;;763                                    GPIO_Pin_15; // | GPIO_Pin_7;
;;;764      GPIO_InitStructure.GPIO_Speed = GPIO_Speed_50MHz;
00001c  2403              MOVS     r4,#3
00001e  f88d4002          STRB     r4,[sp,#2]
;;;765      GPIO_InitStructure.GPIO_Mode = GPIO_Mode_AF_PP;
000022  2018              MOVS     r0,#0x18
000024  f88d0003          STRB     r0,[sp,#3]
;;;766      GPIO_Init(GPIOD, &GPIO_InitStructure);
000028  4669              MOV      r1,sp
00002a  4818              LDR      r0,|L3.140|
00002c  f7fffffe          BL       GPIO_Init
;;;767    
;;;768      /* 设置 PE.07(D4), PE.08(D5), PE.09(D6), PE.10(D7), PE.11(D8), PE.12(D9), PE.13(D10),
;;;769         PE.14(D11), PE.15(D12) 为复用推挽输出 */
;;;770      /* PE3,PE4 用于A19, A20, STM32F103ZE-EK(REV 2.0)必须使能 */
;;;771      /* PE5,PE6 用于A19, A20, STM32F103ZE-EK(REV 2.0)必须使能 */
;;;772      GPIO_InitStructure.GPIO_Pin = GPIO_Pin_7 | GPIO_Pin_8 | GPIO_Pin_9 | GPIO_Pin_10 |
000030  f64f70f8          MOV      r0,#0xfff8
000034  f8ad0000          STRH     r0,[sp,#0]
;;;773                                    GPIO_Pin_11 | GPIO_Pin_12 | GPIO_Pin_13 | GPIO_Pin_14 |
;;;774                                    GPIO_Pin_15 | GPIO_Pin_3 | GPIO_Pin_4 | GPIO_Pin_5 | GPIO_Pin_6;
;;;775      GPIO_Init(GPIOE, &GPIO_InitStructure);
000038  4669              MOV      r1,sp
00003a  4815              LDR      r0,|L3.144|
00003c  f7fffffe          BL       GPIO_Init
;;;776    
;;;777      /* 设置 PF.00(A0 (RS))  为复用推挽输出 */
;;;778      GPIO_InitStructure.GPIO_Pin = GPIO_Pin_0;
000040  2001              MOVS     r0,#1
000042  f8ad0000          STRH     r0,[sp,#0]
;;;779      GPIO_Init(GPIOF, &GPIO_InitStructure);
000046  4669              MOV      r1,sp
000048  4812              LDR      r0,|L3.148|
00004a  f7fffffe          BL       GPIO_Init
;;;780    
;;;781      /* 设置 PG.12(NE4 (LCD/CS)) 为复用推挽输出 - CE3(LCD /CS) */
;;;782      GPIO_InitStructure.GPIO_Pin = GPIO_Pin_12;
00004e  f44f5080          MOV      r0,#0x1000
000052  f8ad0000          STRH     r0,[sp,#0]
;;;783      GPIO_Init(GPIOG, &GPIO_InitStructure);
000056  4669              MOV      r1,sp
000058  480f              LDR      r0,|L3.152|
00005a  f7fffffe          BL       GPIO_Init
;;;784    
;;;785      
;;;786      /* LCD 背光 */
;;;787      RCC_APB2PeriphClockCmd(RCC_APB2Periph_GPIOB, ENABLE);
00005e  2101              MOVS     r1,#1
000060  2008              MOVS     r0,#8
000062  f7fffffe          BL       RCC_APB2PeriphClockCmd
;;;788      GPIO_InitStructure.GPIO_Pin = GPIO_Pin_1;
000066  2002              MOVS     r0,#2
000068  f8ad0000          STRH     r0,[sp,#0]
;;;789      GPIO_InitStructure.GPIO_Speed = GPIO_Speed_50MHz;
00006c  f88d4002          STRB     r4,[sp,#2]
;;;790      GPIO_InitStructure.GPIO_Mode = GPIO_Mode_Out_PP;
000070  2010              MOVS     r0,#0x10
;;;791      GPIO_Init(GPIOB, &GPIO_InitStructure);  
000072  4c0a              LDR      r4,|L3.156|
000074  f88d0003          STRB     r0,[sp,#3]            ;790
000078  4669              MOV      r1,sp
00007a  4620              MOV      r0,r4
00007c  f7fffffe          BL       GPIO_Init
;;;792      GPIO_SetBits(GPIOB, GPIO_Pin_1);  /* 打开LCD背光 */
000080  2102              MOVS     r1,#2
000082  4620              MOV      r0,r4
000084  f7fffffe          BL       GPIO_SetBits
;;;793    
;;;794    }
000088  bd38              POP      {r3-r5,pc}
;;;795    
                          ENDP

00008a  0000              DCW      0x0000
                  |L3.140|
                          DCD      0x40011400
                  |L3.144|
                          DCD      0x40011800
                  |L3.148|
                          DCD      0x40011c00
                  |L3.152|
                          DCD      0x40012000
                  |L3.156|
                          DCD      0x40010c00

                          AREA ||i.LCD_DisplayChar||, CODE, READONLY, ALIGN=2

                  LCD_DisplayChar PROC
;;;336    */
;;;337    void LCD_DisplayChar(uint16_t Xpos, uint16_t Ypos, uint8_t Ascii)
000000  3a20              SUBS     r2,r2,#0x20
;;;338    {
;;;339    	Ascii -= ' ';
000002  b2d2              UXTB     r2,r2
;;;340    	LCD_DrawChar(Xpos, Ypos, &Ascii_16x24[Ascii * 24]);
000004  4b03              LDR      r3,|L4.20|
000006  eb020242          ADD      r2,r2,r2,LSL #1
00000a  eb031202          ADD      r2,r3,r2,LSL #4
00000e  f7ffbffe          B.W      LCD_DrawChar
;;;341    }
;;;342    
                          ENDP

000012  0000              DCW      0x0000
                  |L4.20|
                          DCD      ||.constdata||

                          AREA ||i.LCD_DisplayOff||, CODE, READONLY, ALIGN=1

                  LCD_DisplayOff PROC
;;;735    */
;;;736    void LCD_DisplayOff(void)
000000  2107              MOVS     r1,#7
000002  f04f40d8          MOV      r0,#0x6c000000
000006  8001              STRH     r1,[r0,#0]
000008  2100              MOVS     r1,#0
00000a  8041              STRH     r1,[r0,#2]
;;;737    {
;;;738    	/* Display Off */
;;;739    	LCD_WriteReg(R7, 0x0);
;;;740    }
00000c  4770              BX       lr
;;;741    
                          ENDP


                          AREA ||i.LCD_DisplayOn||, CODE, READONLY, ALIGN=1

                  LCD_DisplayOn PROC
;;;723    */
;;;724    void LCD_DisplayOn(void)
000000  2107              MOVS     r1,#7
000002  f04f40d8          MOV      r0,#0x6c000000
000006  8001              STRH     r1,[r0,#0]
000008  f2401173          MOV      r1,#0x173
00000c  8041              STRH     r1,[r0,#2]
;;;725    {
;;;726    	/* Display On */
;;;727    	LCD_WriteReg(R7, 0x0173); /* 262K color and display ON */
;;;728    }
00000e  4770              BX       lr
;;;729    
                          ENDP


                          AREA ||i.LCD_DisplayString||, CODE, READONLY, ALIGN=1

                  LCD_DisplayString PROC
;;;351    */
;;;352    void LCD_DisplayString(uint16_t Xpos, uint16_t Ypos, uint8_t *ptr)
000000  e92d41f0          PUSH     {r4-r8,lr}
;;;353    {
;;;354    	uint32_t i = 0;
000004  2400              MOVS     r4,#0
000006  4606              MOV      r6,r0                 ;353
000008  4688              MOV      r8,r1                 ;353
00000a  4615              MOV      r5,r2                 ;353
;;;355    
;;;356    	while ((*ptr != 0) & (i < 30))
00000c  2701              MOVS     r7,#1
;;;357    	{
;;;358    		LCD_DisplayChar(Xpos, Ypos, *ptr);		/* 在LCD上显示1个字符 */
;;;359    		Xpos += 16;									/* 列地址减16 */
;;;360    		ptr++;			/* 指针指向下一个字符 */
;;;361    		i++;
00000e  e007              B        |L7.32|
                  |L7.16|
000010  4641              MOV      r1,r8                 ;358
000012  4630              MOV      r0,r6                 ;358
000014  f7fffffe          BL       LCD_DisplayChar
000018  3610              ADDS     r6,r6,#0x10           ;359
00001a  1c6d              ADDS     r5,r5,#1              ;360
00001c  b2b6              UXTH     r6,r6                 ;359
00001e  1c64              ADDS     r4,r4,#1
                  |L7.32|
000020  782a              LDRB     r2,[r5,#0]            ;356
000022  b10a              CBZ      r2,|L7.40|
000024  2001              MOVS     r0,#1                 ;356
000026  e000              B        |L7.42|
                  |L7.40|
000028  2000              MOVS     r0,#0                 ;356
                  |L7.42|
00002a  4639              MOV      r1,r7                 ;356
00002c  2c1e              CMP      r4,#0x1e              ;356
00002e  d300              BCC      |L7.50|
000030  2100              MOVS     r1,#0                 ;356
                  |L7.50|
000032  4208              TST      r0,r1                 ;356
000034  d1ec              BNE      |L7.16|
;;;362    	}
;;;363    }
000036  e8bd81f0          POP      {r4-r8,pc}
;;;364    
                          ENDP


                          AREA ||i.LCD_DrawChar||, CODE, READONLY, ALIGN=2

                  LCD_DrawChar PROC
;;;276    */
;;;277    void LCD_DrawChar(uint16_t Xpos, uint16_t Ypos, const uint16_t *c)
000000  e92d4ff7          PUSH     {r0-r2,r4-r11,lr}
;;;278    {
000004  4690              MOV      r8,r2
;;;279    	uint32_t index = 0, i = 0;
000006  2400              MOVS     r4,#0
;;;280    	uint8_t Yaddress;
;;;281    
;;;282    	Yaddress = Ypos;
000008  b2cd              UXTB     r5,r1
;;;283    
;;;284    	LCD_SetCursor(Xpos, Ypos);
00000a  9800              LDR      r0,[sp,#0]
00000c  f7fffffe          BL       LCD_SetCursor
;;;285    
;;;286    	if (s_Transparent == 0)
000010  4825              LDR      r0,|L8.168|
000012  7801              LDRB     r1,[r0,#0]  ; s_Transparent
;;;287    	{
;;;288    		for (index = 0; index < 24; index++)	/* 字符高度 */
;;;289    		{
;;;290    			LCD_WriteRAM_Prepare();
;;;291    			for (i = 0; i < 16; i++)	/* 字符宽度 */
;;;292    			{
;;;293    				if ((c[index] & (1 << i)) == 0x00)
000014  2601              MOVS     r6,#1
000016  f2402202          MOV      r2,#0x202
00001a  f04f43d8          MOV      r3,#0x6c000000
00001e  b9f9              CBNZ     r1,|L8.96|
000020  4682              MOV      r10,r0                ;286
000022  4693              MOV      r11,r2                ;286
000024  4699              MOV      r9,r3                 ;286
                  |L8.38|
000026  464b              MOV      r3,r9                 ;286
000028  f8a9b000          STRH     r11,[r9,#0]           ;286
00002c  2000              MOVS     r0,#0                 ;291
00002e  4652              MOV      r2,r10                ;286
                  |L8.48|
000030  f8387014          LDRH     r7,[r8,r4,LSL #1]
000034  fa06f100          LSL      r1,r6,r0
000038  420f              TST      r7,r1
00003a  d101              BNE      |L8.64|
;;;294    				{
;;;295    					LCD_WriteRAM(s_BackColor);
00003c  8891              LDRH     r1,[r2,#4]  ; s_BackColor
00003e  e000              B        |L8.66|
                  |L8.64|
;;;296    				}
;;;297    				else
;;;298    				{
;;;299    					LCD_WriteRAM(s_TextColor);
000040  8851              LDRH     r1,[r2,#2]  ; s_TextColor
                  |L8.66|
000042  8059              STRH     r1,[r3,#2]
000044  1c40              ADDS     r0,r0,#1              ;291
000046  2810              CMP      r0,#0x10              ;291
000048  d3f2              BCC      |L8.48|
;;;300    				}
;;;301    			}
;;;302    			Yaddress++;
00004a  1c6d              ADDS     r5,r5,#1
00004c  b2ed              UXTB     r5,r5
;;;303    			LCD_SetCursor(Xpos, Yaddress);
00004e  4629              MOV      r1,r5
000050  9800              LDR      r0,[sp,#0]
000052  f7fffffe          BL       LCD_SetCursor
000056  1c64              ADDS     r4,r4,#1              ;288
000058  2c18              CMP      r4,#0x18              ;288
00005a  d3e4              BCC      |L8.38|
                  |L8.92|
;;;304    		}
;;;305    	}
;;;306    	else	/* armfly 添加：实现文字叠加在图片上的功能 */
;;;307    	{
;;;308    		for (index = 0; index < 24; index++)	/* 字符高度 */
;;;309    		{
;;;310    			uint16_t x = Xpos;
;;;311    
;;;312    			for (i = 0; i < 16; i++)	/* 字符宽度 */
;;;313    			{
;;;314    				if ((c[index] & (1 << i)) != 0x00)
;;;315    				{
;;;316    					LCD_SetCursor(x, Yaddress);
;;;317    
;;;318    					LCD->LCD_REG = 0x202;
;;;319    					LCD->LCD_RAM = s_TextColor;
;;;320    				}
;;;321    				x++;
;;;322    			}
;;;323    			Yaddress++;
;;;324    		}
;;;325    	}
;;;326    }
00005c  e8bd8ffe          POP      {r1-r11,pc}
                  |L8.96|
000060  46b2              MOV      r10,r6                ;293
000062  4683              MOV      r11,r0                ;286
000064  4699              MOV      r9,r3                 ;286
                  |L8.102|
000066  f8dd7000          LDR.W    r7,[sp,#0]            ;312
00006a  2600              MOVS     r6,#0                 ;312
                  |L8.108|
00006c  f8380014          LDRH     r0,[r8,r4,LSL #1]     ;314
000070  fa0af106          LSL      r1,r10,r6             ;314
000074  4208              TST      r0,r1                 ;314
000076  d00b              BEQ      |L8.144|
000078  4629              MOV      r1,r5                 ;316
00007a  4638              MOV      r0,r7                 ;316
00007c  f7fffffe          BL       LCD_SetCursor
000080  f2402102          MOV      r1,#0x202             ;318
000084  f8a91000          STRH     r1,[r9,#0]            ;318
000088  f8bb1002          LDRH     r1,[r11,#2]           ;319  ; s_TextColor
00008c  f8a91002          STRH     r1,[r9,#2]            ;319
                  |L8.144|
000090  1c7f              ADDS     r7,r7,#1              ;321
000092  1c76              ADDS     r6,r6,#1              ;312
000094  b2bf              UXTH     r7,r7                 ;321
000096  2e10              CMP      r6,#0x10              ;312
000098  d3e8              BCC      |L8.108|
00009a  1c6d              ADDS     r5,r5,#1              ;323
00009c  1c64              ADDS     r4,r4,#1              ;308
00009e  b2ed              UXTB     r5,r5                 ;323
0000a0  2c18              CMP      r4,#0x18              ;308
0000a2  d3e0              BCC      |L8.102|
0000a4  e7da              B        |L8.92|
;;;327    
                          ENDP

0000a6  0000              DCW      0x0000
                  |L8.168|
                          DCD      ||.data||

                          AREA ||i.LCD_DrawCircle||, CODE, READONLY, ALIGN=2

                  LCD_DrawCircle PROC
;;;525    */
;;;526    void LCD_DrawCircle(uint16_t Xpos, uint16_t Ypos, uint16_t Radius)
000000  e92d4ff0          PUSH     {r4-r11,lr}
;;;527    {
000004  4682              MOV      r10,r0
;;;528    	int32_t  D;			/* Decision Variable */
;;;529    	uint32_t  CurX;		/* 当前 X 值 */
;;;530    	uint32_t  CurY;		/* 当前 Y 值 */
;;;531    
;;;532    	D = 3 - (Radius << 1);
000006  2003              MOVS     r0,#3
000008  b088              SUB      sp,sp,#0x20           ;527
00000a  468b              MOV      r11,r1                ;527
00000c  eba00742          SUB      r7,r0,r2,LSL #1
;;;533    	CurX = 0;
000010  2400              MOVS     r4,#0
;;;534    	CurY = Radius;
000012  4615              MOV      r5,r2
;;;535    
;;;536    	while (CurX <= CurY)
000014  e07a              B        |L9.268|
;;;537    	{
;;;538    		LCD_SetCursor(Xpos + CurX, Ypos + CurY);
000016  bf00              NOP      
                  |L9.24|
000018  eb0b0005          ADD      r0,r11,r5
00001c  b281              UXTH     r1,r0
00001e  9007              STR      r0,[sp,#0x1c]
000020  eb0a0004          ADD      r0,r10,r4
000024  9006              STR      r0,[sp,#0x18]
000026  b280              UXTH     r0,r0
000028  f7fffffe          BL       LCD_SetCursor
00002c  f2402802          MOV      r8,#0x202
000030  f04f46d8          MOV      r6,#0x6c000000
000034  f8a68000          STRH     r8,[r6,#0]
;;;539    		LCD_WriteRAM_Prepare(); /* Prepare to write GRAM */
;;;540    		LCD_WriteRAM(s_TextColor);
000038  f8df90dc          LDR      r9,|L9.280|
00003c  f8b90002          LDRH     r0,[r9,#2]  ; s_TextColor
000040  8070              STRH     r0,[r6,#2]
;;;541    
;;;542    		LCD_SetCursor(Xpos + CurX, Ypos - CurY);
000042  ebab0005          SUB      r0,r11,r5
000046  b281              UXTH     r1,r0
000048  9005              STR      r0,[sp,#0x14]
00004a  9806              LDR      r0,[sp,#0x18]
00004c  b280              UXTH     r0,r0
00004e  f7fffffe          BL       LCD_SetCursor
000052  f8a68000          STRH     r8,[r6,#0]
;;;543    		LCD_WriteRAM_Prepare(); /* Prepare to write GRAM */
;;;544    		LCD_WriteRAM(s_TextColor);
000056  f8b90002          LDRH     r0,[r9,#2]  ; s_TextColor
00005a  8070              STRH     r0,[r6,#2]
;;;545    
;;;546    		LCD_SetCursor(Xpos - CurX, Ypos + CurY);
00005c  9807              LDR      r0,[sp,#0x1c]
00005e  b281              UXTH     r1,r0
000060  ebaa0004          SUB      r0,r10,r4
000064  9004              STR      r0,[sp,#0x10]
000066  b280              UXTH     r0,r0
000068  f7fffffe          BL       LCD_SetCursor
00006c  f8a68000          STRH     r8,[r6,#0]
;;;547    		LCD_WriteRAM_Prepare(); /* Prepare to write GRAM */
;;;548    		LCD_WriteRAM(s_TextColor);
000070  f8b90002          LDRH     r0,[r9,#2]  ; s_TextColor
000074  8070              STRH     r0,[r6,#2]
;;;549    
;;;550    		LCD_SetCursor(Xpos - CurX, Ypos - CurY);
000076  9805              LDR      r0,[sp,#0x14]
000078  b281              UXTH     r1,r0
00007a  9804              LDR      r0,[sp,#0x10]
00007c  b280              UXTH     r0,r0
00007e  f7fffffe          BL       LCD_SetCursor
000082  f8a68000          STRH     r8,[r6,#0]
;;;551    		LCD_WriteRAM_Prepare(); /* Prepare to write GRAM */
;;;552    		LCD_WriteRAM(s_TextColor);
000086  f8b90002          LDRH     r0,[r9,#2]  ; s_TextColor
00008a  8070              STRH     r0,[r6,#2]
;;;553    
;;;554    		LCD_SetCursor(Xpos + CurY, Ypos + CurX);
00008c  eb0b0004          ADD      r0,r11,r4
000090  b281              UXTH     r1,r0
000092  9003              STR      r0,[sp,#0xc]
000094  eb0a0005          ADD      r0,r10,r5
000098  9002              STR      r0,[sp,#8]
00009a  b280              UXTH     r0,r0
00009c  f7fffffe          BL       LCD_SetCursor
0000a0  f8a68000          STRH     r8,[r6,#0]
;;;555    		LCD_WriteRAM_Prepare(); /* Prepare to write GRAM */
;;;556    		LCD_WriteRAM(s_TextColor);
0000a4  f8b90002          LDRH     r0,[r9,#2]  ; s_TextColor
0000a8  8070              STRH     r0,[r6,#2]
;;;557    
;;;558    		LCD_SetCursor(Xpos + CurY, Ypos - CurX);
0000aa  ebab0004          SUB      r0,r11,r4
0000ae  b281              UXTH     r1,r0
0000b0  9001              STR      r0,[sp,#4]
0000b2  9802              LDR      r0,[sp,#8]
0000b4  b280              UXTH     r0,r0
0000b6  f7fffffe          BL       LCD_SetCursor
0000ba  f8a68000          STRH     r8,[r6,#0]
;;;559    		LCD_WriteRAM_Prepare(); /* Prepare to write GRAM */
;;;560    		LCD_WriteRAM(s_TextColor);
0000be  f8b90002          LDRH     r0,[r9,#2]  ; s_TextColor
0000c2  8070              STRH     r0,[r6,#2]
;;;561    
;;;562    		LCD_SetCursor(Xpos - CurY, Ypos + CurX);
0000c4  9803              LDR      r0,[sp,#0xc]
0000c6  b281              UXTH     r1,r0
0000c8  ebaa0005          SUB      r0,r10,r5
0000cc  9000              STR      r0,[sp,#0]
0000ce  b280              UXTH     r0,r0
0000d0  f7fffffe          BL       LCD_SetCursor
0000d4  f8a68000          STRH     r8,[r6,#0]
;;;563    		LCD_WriteRAM_Prepare(); /* Prepare to write GRAM */
;;;564    		LCD_WriteRAM(s_TextColor);
0000d8  f8b90002          LDRH     r0,[r9,#2]  ; s_TextColor
0000dc  8070              STRH     r0,[r6,#2]
;;;565    
;;;566    		LCD_SetCursor(Xpos - CurY, Ypos - CurX);
0000de  9801              LDR      r0,[sp,#4]
0000e0  b281              UXTH     r1,r0
0000e2  9800              LDR      r0,[sp,#0]
0000e4  b280              UXTH     r0,r0
0000e6  f7fffffe          BL       LCD_SetCursor
0000ea  f8a68000          STRH     r8,[r6,#0]
;;;567    		LCD_WriteRAM_Prepare(); /* Prepare to write GRAM */
;;;568    		LCD_WriteRAM(s_TextColor);
0000ee  f8b90002          LDRH     r0,[r9,#2]  ; s_TextColor
0000f2  8070              STRH     r0,[r6,#2]
;;;569    
;;;570    		if (D < 0)
0000f4  2f00              CMP      r7,#0
0000f6  da03              BGE      |L9.256|
;;;571    		{
;;;572    			D += (CurX << 2) + 6;
0000f8  eb070784          ADD      r7,r7,r4,LSL #2
0000fc  1dbf              ADDS     r7,r7,#6
0000fe  e004              B        |L9.266|
                  |L9.256|
;;;573    		}
;;;574    		else
;;;575    		{
;;;576    			D += ((CurX - CurY) << 2) + 10;
000100  1b60              SUBS     r0,r4,r5
000102  eb070780          ADD      r7,r7,r0,LSL #2
000106  370a              ADDS     r7,r7,#0xa
;;;577    			CurY--;
000108  1e6d              SUBS     r5,r5,#1
                  |L9.266|
;;;578    		}
;;;579    		CurX++;
00010a  1c64              ADDS     r4,r4,#1
                  |L9.268|
00010c  42ac              CMP      r4,r5                 ;536
00010e  d983              BLS      |L9.24|
;;;580    	}
;;;581    }
000110  b008              ADD      sp,sp,#0x20
000112  e8bd8ff0          POP      {r4-r11,pc}
;;;582    
                          ENDP

000116  0000              DCW      0x0000
                  |L9.280|
                          DCD      ||.data||

                          AREA ||i.LCD_DrawLine||, CODE, READONLY, ALIGN=2

                  LCD_DrawLine PROC
;;;426    */
;;;427    void LCD_DrawLine(uint16_t Xpos, uint16_t Ypos, uint16_t Length, uint8_t Direction)
000000  e92d47f0          PUSH     {r4-r10,lr}
;;;428    {
000004  4682              MOV      r10,r0
000006  460d              MOV      r5,r1
000008  4616              MOV      r6,r2
00000a  461f              MOV      r7,r3
;;;429    	uint32_t i = 0;
00000c  2400              MOVS     r4,#0
;;;430    
;;;431    	/* 设置线的起始坐标 */
;;;432    	LCD_SetCursor(Xpos, Ypos);
00000e  f7fffffe          BL       LCD_SetCursor
;;;433    
;;;434    	if (Direction == Horizontal)	/* 水平绘制 */
;;;435    	{
;;;436    		LCD_WriteRAM_Prepare();
;;;437    		for (i = 0; i < Length; i++)
;;;438    		{
;;;439    			LCD_WriteRAM(s_TextColor);
000012  4912              LDR      r1,|L10.92|
000014  f2402002          MOV      r0,#0x202
000018  f04f48d8          MOV      r8,#0x6c000000
00001c  b957              CBNZ     r7,|L10.52|
00001e  f8a80000          STRH     r0,[r8,#0]            ;434
000022  e003              B        |L10.44|
                  |L10.36|
000024  8848              LDRH     r0,[r1,#2]  ; s_TextColor
000026  f8a80002          STRH     r0,[r8,#2]
00002a  1c64              ADDS     r4,r4,#1              ;437
                  |L10.44|
00002c  42b4              CMP      r4,r6                 ;437
00002e  d3f9              BCC      |L10.36|
                  |L10.48|
;;;440    		}
;;;441    	}
;;;442    	else	/* 垂直绘制 */
;;;443    	{
;;;444    		for (i = 0; i < Length; i++)
;;;445    		{
;;;446    			LCD_WriteRAM_Prepare();
;;;447    			LCD_WriteRAM(s_TextColor);
;;;448    			Ypos++;
;;;449    			LCD_SetCursor(Xpos, Ypos);
;;;450    		}
;;;451    	}
;;;452    }
000030  e8bd87f0          POP      {r4-r10,pc}
                  |L10.52|
000034  4681              MOV      r9,r0
000036  460f              MOV      r7,r1                 ;439
000038  e00c              B        |L10.84|
00003a  bf00              NOP                            ;444
                  |L10.60|
00003c  f8a89000          STRH     r9,[r8,#0]            ;444
000040  8878              LDRH     r0,[r7,#2]            ;447  ; s_TextColor
000042  f8a80002          STRH     r0,[r8,#2]            ;447
000046  1c6d              ADDS     r5,r5,#1              ;448
000048  b2ad              UXTH     r5,r5                 ;448
00004a  4629              MOV      r1,r5                 ;449
00004c  4650              MOV      r0,r10                ;449
00004e  f7fffffe          BL       LCD_SetCursor
000052  1c64              ADDS     r4,r4,#1              ;444
                  |L10.84|
000054  42b4              CMP      r4,r6                 ;444
000056  d3f1              BCC      |L10.60|
000058  e7ea              B        |L10.48|
;;;453    
                          ENDP

00005a  0000              DCW      0x0000
                  |L10.92|
                          DCD      ||.data||

                          AREA ||i.LCD_DrawMonoPict||, CODE, READONLY, ALIGN=2

                  LCD_DrawMonoPict PROC
;;;588    */
;;;589    void LCD_DrawMonoPict(const uint32_t *Pict)
000000  b5f0              PUSH     {r4-r7,lr}
;;;590    {
000002  4605              MOV      r5,r0
;;;591    	uint32_t index = 0, i = 0;
000004  2400              MOVS     r4,#0
;;;592    
;;;593    	LCD_SetCursor(0, 400);
000006  f44f71c8          MOV      r1,#0x190
00000a  4620              MOV      r0,r4
00000c  f7fffffe          BL       LCD_SetCursor
000010  f2402002          MOV      r0,#0x202
000014  f04f42d8          MOV      r2,#0x6c000000
000018  8010              STRH     r0,[r2,#0]
;;;594    
;;;595    	LCD_WriteRAM_Prepare(); /* Prepare to write GRAM */
;;;596    	for (index = 0; index < 2400; index++)
;;;597    	{
;;;598    		for (i = 0; i < 32; i++)
;;;599    		{
;;;600    			if ((Pict[index] & (1 << i)) == 0x00)
;;;601    			{
;;;602    				LCD_WriteRAM(s_BackColor);
00001a  4b0b              LDR      r3,|L11.72|
00001c  2601              MOVS     r6,#1                 ;600
00001e  f44f6c16          MOV      r12,#0x960            ;596
                  |L11.34|
000022  2000              MOVS     r0,#0                 ;598
                  |L11.36|
000024  f8551024          LDR      r1,[r5,r4,LSL #2]     ;600
000028  fa06f700          LSL      r7,r6,r0              ;600
00002c  4239              TST      r1,r7                 ;600
00002e  d101              BNE      |L11.52|
000030  8899              LDRH     r1,[r3,#4]  ; s_BackColor
000032  e000              B        |L11.54|
                  |L11.52|
;;;603    			}
;;;604    			else
;;;605    			{
;;;606    				LCD_WriteRAM(s_TextColor);
000034  8859              LDRH     r1,[r3,#2]  ; s_TextColor
                  |L11.54|
000036  8051              STRH     r1,[r2,#2]
000038  1c40              ADDS     r0,r0,#1              ;598
00003a  2820              CMP      r0,#0x20              ;598
00003c  d3f2              BCC      |L11.36|
00003e  1c64              ADDS     r4,r4,#1              ;596
000040  4564              CMP      r4,r12                ;596
000042  d3ee              BCC      |L11.34|
;;;607    			}
;;;608    		}
;;;609    	}
;;;610    }
000044  bdf0              POP      {r4-r7,pc}
;;;611    
                          ENDP

000046  0000              DCW      0x0000
                  |L11.72|
                          DCD      ||.data||

                          AREA ||i.LCD_DrawPoints||, CODE, READONLY, ALIGN=2

                  LCD_DrawPoints PROC
;;;462    */
;;;463    void LCD_DrawPoints(POINT_T _offset, POINT_T *_points, uint16_t _Size, uint16_t _Color)
000000  e92d4ff0          PUSH     {r4-r11,lr}
;;;464    {
;;;465    #if 1
;;;466    	uint16_t i;
;;;467    
;;;468    	for (i = 0 ; i < _Size; i++)
000004  2400              MOVS     r4,#0
000006  460d              MOV      r5,r1                 ;464
000008  4690              MOV      r8,r2                 ;464
00000a  4699              MOV      r9,r3                 ;464
00000c  0c06              LSRS     r6,r0,#16
00000e  b287              UXTH     r7,r0
000010  f2402b02          MOV      r11,#0x202
000014  f04f4ad8          MOV      r10,#0x6c000000
000018  e011              B        |L12.62|
;;;469    	{
;;;470    		/* 设置线的起始坐标 */
;;;471    		LCD_SetCursor(_points[i].x + _offset.x, _points[i].y + _offset.y);
00001a  bf00              NOP      
                  |L12.28|
00001c  eb050084          ADD      r0,r5,r4,LSL #2
000020  8840              LDRH     r0,[r0,#2]
000022  4430              ADD      r0,r0,r6
000024  b281              UXTH     r1,r0
000026  f8350024          LDRH     r0,[r5,r4,LSL #2]
00002a  4438              ADD      r0,r0,r7
00002c  b280              UXTH     r0,r0
00002e  f7fffffe          BL       LCD_SetCursor
000032  f8aab000          STRH     r11,[r10,#0]
000036  f8aa9002          STRH     r9,[r10,#2]
00003a  1c64              ADDS     r4,r4,#1              ;468
00003c  b2a4              UXTH     r4,r4                 ;468
                  |L12.62|
00003e  4544              CMP      r4,r8                 ;468
000040  d3ec              BCC      |L12.28|
;;;472    		/* 修改显存数据 */
;;;473    		LCD_WriteReg(0x202, _Color);
;;;474    	}
;;;475    #else
;;;476    	/* 下面是优化后的代码 */
;;;477    	for (i = 0 ; i < _Size; i++)
;;;478    	{
;;;479    		LCD->LCD_REG = 0x0200;
;;;480    		LCD->LCD_RAM = _points[i]->x;
;;;481    
;;;482    		LCD->LCD_REG = 0x0201;
;;;483    		LCD->LCD_RAM = _points[i]->y;
;;;484    
;;;485    		LCD->LCD_REG = 0x0202;
;;;486    		LCD->LCD_RAM = _Color;
;;;487    	}
;;;488    #endif
;;;489    
;;;490    }
000042  e8bd8ff0          POP      {r4-r11,pc}
;;;491    
                          ENDP


                          AREA ||i.LCD_DrawRect||, CODE, READONLY, ALIGN=1

                  LCD_DrawRect PROC
;;;500    */
;;;501    void LCD_DrawRect(uint16_t Xpos, uint16_t Ypos, uint8_t Height, uint16_t Width)
000000  b5f0              PUSH     {r4-r7,lr}
;;;502    {
000002  461f              MOV      r7,r3
000004  4615              MOV      r5,r2
000006  4606              MOV      r6,r0
000008  460c              MOV      r4,r1
;;;503    	/*
;;;504    	 ---------------->---
;;;505    	|(Xpos，Ypos)        |
;;;506    	V                    V  Height
;;;507    	|                    |
;;;508    	 ---------------->---
;;;509    		  Width
;;;510    	*/
;;;511    
;;;512    	LCD_DrawLine(Xpos, Ypos, Width, Horizontal);  				/* 顶 */
00000a  2300              MOVS     r3,#0
00000c  463a              MOV      r2,r7
00000e  f7fffffe          BL       LCD_DrawLine
;;;513    	LCD_DrawLine(Xpos, Ypos + Height, Width, Horizontal);		/* 底 */
000012  1960              ADDS     r0,r4,r5
000014  b281              UXTH     r1,r0
000016  2300              MOVS     r3,#0
000018  463a              MOV      r2,r7
00001a  4630              MOV      r0,r6
00001c  f7fffffe          BL       LCD_DrawLine
;;;514    
;;;515    	LCD_DrawLine(Xpos, Ypos, Height, Vertical);					/* 左 */
000020  2301              MOVS     r3,#1
000022  462a              MOV      r2,r5
000024  4621              MOV      r1,r4
000026  4630              MOV      r0,r6
000028  f7fffffe          BL       LCD_DrawLine
;;;516    	LCD_DrawLine(Xpos + Width, Ypos, Height, Vertical);	/* 右 */
00002c  19f0              ADDS     r0,r6,r7
00002e  462a              MOV      r2,r5
000030  4621              MOV      r1,r4
000032  e8bd40f0          POP      {r4-r7,lr}
000036  b280              UXTH     r0,r0
000038  2301              MOVS     r3,#1
00003a  f7ffbffe          B.W      LCD_DrawLine
;;;517    }
;;;518    
                          ENDP


                          AREA ||i.LCD_FSMCConfig||, CODE, READONLY, ALIGN=1

                  LCD_FSMCConfig PROC
;;;801    */
;;;802    static void LCD_FSMCConfig(void)
000000  b500              PUSH     {lr}
;;;803    {
000002  b095              SUB      sp,sp,#0x54
;;;804      FSMC_NORSRAMInitTypeDef  FSMC_NORSRAMInitStructure;
;;;805      FSMC_NORSRAMTimingInitTypeDef  FSMC_NORSRAMTimingInitStructure;
;;;806    
;;;807      /*-- FSMC Configuration ------------------------------------------------------*/
;;;808      /*----------------------- SRAM Bank 4 ----------------------------------------*/
;;;809      /* FSMC_Bank1_NORSRAM4 configuration */
;;;810      FSMC_NORSRAMTimingInitStructure.FSMC_AddressSetupTime = 1;
000004  2001              MOVS     r0,#1
;;;811      FSMC_NORSRAMTimingInitStructure.FSMC_AddressHoldTime = 0;
000006  9000              STR      r0,[sp,#0]
000008  2000              MOVS     r0,#0
;;;812      FSMC_NORSRAMTimingInitStructure.FSMC_DataSetupTime = 2;
00000a  2102              MOVS     r1,#2
;;;813      FSMC_NORSRAMTimingInitStructure.FSMC_BusTurnAroundDuration = 0;
00000c  e9cd0101          STRD     r0,r1,[sp,#4]
;;;814      FSMC_NORSRAMTimingInitStructure.FSMC_CLKDivision = 0;
000010  9003              STR      r0,[sp,#0xc]
;;;815      FSMC_NORSRAMTimingInitStructure.FSMC_DataLatency = 0;
000012  9004              STR      r0,[sp,#0x10]
;;;816      FSMC_NORSRAMTimingInitStructure.FSMC_AccessMode = FSMC_AccessMode_B;
000014  06c9              LSLS     r1,r1,#27
;;;817    
;;;818      /* Color LCD configuration ------------------------------------
;;;819         LCD configured as follow:
;;;820            - Data/Address MUX = Disable
;;;821            - Memory Type = SRAM
;;;822            - Data Width = 16bit
;;;823            - Write Operation = Enable
;;;824            - Extended Mode = Enable
;;;825            - Asynchronous Wait = Disable */
;;;826      FSMC_NORSRAMInitStructure.FSMC_Bank = FSMC_Bank1_NORSRAM4;
000016  e9cd0105          STRD     r0,r1,[sp,#0x14]
00001a  2106              MOVS     r1,#6
;;;827      FSMC_NORSRAMInitStructure.FSMC_DataAddressMux = FSMC_DataAddressMux_Disable;
;;;828      FSMC_NORSRAMInitStructure.FSMC_MemoryType = FSMC_MemoryType_SRAM;
00001c  e9cd1007          STRD     r1,r0,[sp,#0x1c]
;;;829      FSMC_NORSRAMInitStructure.FSMC_MemoryDataWidth = FSMC_MemoryDataWidth_16b;
000020  2110              MOVS     r1,#0x10
;;;830      FSMC_NORSRAMInitStructure.FSMC_BurstAccessMode = FSMC_BurstAccessMode_Disable;
000022  e9cd0109          STRD     r0,r1,[sp,#0x24]
;;;831      FSMC_NORSRAMInitStructure.FSMC_WaitSignalPolarity = FSMC_WaitSignalPolarity_Low;
;;;832      FSMC_NORSRAMInitStructure.FSMC_WrapMode = FSMC_WrapMode_Disable;
;;;833      FSMC_NORSRAMInitStructure.FSMC_WaitSignalActive = FSMC_WaitSignalActive_BeforeWaitState;
;;;834      FSMC_NORSRAMInitStructure.FSMC_WriteOperation = FSMC_WriteOperation_Enable;
000026  0209              LSLS     r1,r1,#8
;;;835      FSMC_NORSRAMInitStructure.FSMC_WaitSignal = FSMC_WaitSignal_Disable;
000028  e9cd010e          STRD     r0,r1,[sp,#0x38]
00002c  900b              STR      r0,[sp,#0x2c]         ;831
00002e  900c              STR      r0,[sp,#0x30]         ;832
000030  900d              STR      r0,[sp,#0x34]         ;833
;;;836      FSMC_NORSRAMInitStructure.FSMC_ExtendedMode = FSMC_ExtendedMode_Disable;
000032  9010              STR      r0,[sp,#0x40]
;;;837      FSMC_NORSRAMInitStructure.FSMC_WriteBurst = FSMC_WriteBurst_Disable;
000034  9011              STR      r0,[sp,#0x44]
;;;838      FSMC_NORSRAMInitStructure.FSMC_ReadWriteTimingStruct = &FSMC_NORSRAMTimingInitStructure;
000036  9012              STR      r0,[sp,#0x48]
000038  f8cdd04c          STR      sp,[sp,#0x4c]
;;;839      FSMC_NORSRAMInitStructure.FSMC_WriteTimingStruct = &FSMC_NORSRAMTimingInitStructure;
00003c  f8cdd050          STR      sp,[sp,#0x50]
;;;840    
;;;841      FSMC_NORSRAMInit(&FSMC_NORSRAMInitStructure);
000040  a807              ADD      r0,sp,#0x1c
000042  f7fffffe          BL       FSMC_NORSRAMInit
;;;842    
;;;843      /* - BANK 3 (of NOR/SRAM Bank 0~3) is enabled */
;;;844      FSMC_NORSRAMCmd(FSMC_Bank1_NORSRAM4, ENABLE);
000046  2101              MOVS     r1,#1
000048  2006              MOVS     r0,#6
00004a  f7fffffe          BL       FSMC_NORSRAMCmd
;;;845    }
00004e  b015              ADD      sp,sp,#0x54
000050  bd00              POP      {pc}
;;;846    
                          ENDP


                          AREA ||i.LCD_Init||, CODE, READONLY, ALIGN=1

                  LCD_Init PROC
;;;44     */
;;;45     void LCD_Init(void)//For controller 5420
000000  e92d5ff0          PUSH     {r4-r12,lr}
;;;46     {
;;;47     	/* 配置LCD控制口线GPIO */
;;;48     	LCD_CtrlLinesConfig();
000004  f7fffffe          BL       LCD_CtrlLinesConfig
;;;49     
;;;50     	/* 配置FSMC接口，数据总线 */
;;;51     	LCD_FSMCConfig();
000008  f7fffffe          BL       LCD_FSMCConfig
;;;52     
;;;53     	/* FSMC重置后必须加延迟才能访问总线设备  */
;;;54     	//DelayMS(20);
;;;55     	//Delay_ms(50);
;;;56     	delay_lcd(2);// About delay nCount*10 ms
00000c  2002              MOVS     r0,#2
00000e  f7fffffe          BL       delay_lcd
000012  2100              MOVS     r1,#0
000014  f04f40d8          MOV      r0,#0x6c000000
000018  8001              STRH     r1,[r0,#0]
00001a  8041              STRH     r1,[r0,#2]
00001c  2201              MOVS     r2,#1
00001e  8002              STRH     r2,[r0,#0]
000020  0213              LSLS     r3,r2,#8
000022  8043              STRH     r3,[r0,#2]
000024  2402              MOVS     r4,#2
000026  8004              STRH     r4,[r0,#0]
000028  8043              STRH     r3,[r0,#2]
00002a  2403              MOVS     r4,#3
00002c  8004              STRH     r4,[r0,#0]
00002e  f2410418          MOV      r4,#0x1018
000032  8044              STRH     r4,[r0,#2]
000034  2408              MOVS     r4,#8
000036  8004              STRH     r4,[r0,#0]
000038  f6400408          MOV      r4,#0x808
00003c  8044              STRH     r4,[r0,#2]
00003e  2409              MOVS     r4,#9
000040  8004              STRH     r4,[r0,#0]
000042  8042              STRH     r2,[r0,#2]
000044  240b              MOVS     r4,#0xb
000046  8004              STRH     r4,[r0,#0]
000048  2410              MOVS     r4,#0x10
00004a  8044              STRH     r4,[r0,#2]
00004c  240c              MOVS     r4,#0xc
00004e  8004              STRH     r4,[r0,#0]
000050  8041              STRH     r1,[r0,#2]
000052  250f              MOVS     r5,#0xf
000054  8005              STRH     r5,[r0,#0]
000056  8041              STRH     r1,[r0,#2]
000058  2407              MOVS     r4,#7
00005a  8004              STRH     r4,[r0,#0]
00005c  8042              STRH     r2,[r0,#2]
00005e  2410              MOVS     r4,#0x10
000060  8004              STRH     r4,[r0,#0]
000062  2413              MOVS     r4,#0x13
000064  8044              STRH     r4,[r0,#2]
000066  2411              MOVS     r4,#0x11
000068  8004              STRH     r4,[r0,#0]
00006a  f2405901          MOV      r9,#0x501
00006e  f8a09002          STRH     r9,[r0,#2]
000072  2412              MOVS     r4,#0x12
000074  8004              STRH     r4,[r0,#0]
000076  f44f7440          MOV      r4,#0x300
00007a  8044              STRH     r4,[r0,#2]
00007c  2420              MOVS     r4,#0x20
00007e  8004              STRH     r4,[r0,#0]
000080  f240241e          MOV      r4,#0x21e
000084  8044              STRH     r4,[r0,#2]
000086  2421              MOVS     r4,#0x21
000088  8004              STRH     r4,[r0,#0]
00008a  f2402402          MOV      r4,#0x202
00008e  8044              STRH     r4,[r0,#2]
000090  2490              MOVS     r4,#0x90
000092  8004              STRH     r4,[r0,#0]
000094  03d4              LSLS     r4,r2,#15
000096  8044              STRH     r4,[r0,#2]
000098  8003              STRH     r3,[r0,#0]
00009a  f24173b0          MOV      r3,#0x17b0
00009e  8043              STRH     r3,[r0,#2]
0000a0  f2401301          MOV      r3,#0x101
0000a4  8003              STRH     r3,[r0,#0]
0000a6  f2401447          MOV      r4,#0x147
0000aa  8044              STRH     r4,[r0,#2]
0000ac  1c5c              ADDS     r4,r3,#1
0000ae  8004              STRH     r4,[r0,#0]
0000b0  f2401435          MOV      r4,#0x135
0000b4  8044              STRH     r4,[r0,#2]
0000b6  1c9c              ADDS     r4,r3,#2
0000b8  8004              STRH     r4,[r0,#0]
0000ba  f44f64e0          MOV      r4,#0x700
0000be  8044              STRH     r4,[r0,#2]
0000c0  f2401e07          MOV      lr,#0x107
0000c4  f8a0e000          STRH     lr,[r0,#0]
0000c8  8041              STRH     r1,[r0,#2]
0000ca  f44f7488          MOV      r4,#0x110
0000ce  8004              STRH     r4,[r0,#0]
0000d0  8042              STRH     r2,[r0,#2]
0000d2  f44f7b04          MOV      r11,#0x210
0000d6  f8a0b000          STRH     r11,[r0,#0]
0000da  8041              STRH     r1,[r0,#2]
0000dc  f2402a11          MOV      r10,#0x211
0000e0  f8a0a000          STRH     r10,[r0,#0]
0000e4  f04f08ef          MOV      r8,#0xef
0000e8  f8a08002          STRH     r8,[r0,#2]
0000ec  f2402612          MOV      r6,#0x212
0000f0  8006              STRH     r6,[r0,#0]
0000f2  8041              STRH     r1,[r0,#2]
0000f4  1c77              ADDS     r7,r6,#1
0000f6  8007              STRH     r7,[r0,#0]
0000f8  f2401c8f          MOV      r12,#0x18f
0000fc  f8a0c002          STRH     r12,[r0,#2]
000100  f44f7420          MOV      r4,#0x280
000104  8004              STRH     r4,[r0,#0]
000106  8041              STRH     r1,[r0,#2]
000108  1c64              ADDS     r4,r4,#1
00010a  8004              STRH     r4,[r0,#0]
00010c  2404              MOVS     r4,#4
00010e  8044              STRH     r4,[r0,#2]
000110  f2402482          MOV      r4,#0x282
000114  8004              STRH     r4,[r0,#0]
000116  8041              STRH     r1,[r0,#2]
000118  f44f7440          MOV      r4,#0x300
00011c  8004              STRH     r4,[r0,#0]
00011e  8043              STRH     r3,[r0,#2]
000120  1c64              ADDS     r4,r4,#1
000122  8004              STRH     r4,[r0,#0]
000124  f640342c          MOV      r4,#0xb2c
000128  8044              STRH     r4,[r0,#2]
00012a  f2403402          MOV      r4,#0x302
00012e  8004              STRH     r4,[r0,#0]
000130  f2410430          MOV      r4,#0x1030
000134  8044              STRH     r4,[r0,#2]
000136  f2403403          MOV      r4,#0x303
00013a  8004              STRH     r4,[r0,#0]
00013c  f2430410          MOV      r4,#0x3010
000140  8044              STRH     r4,[r0,#2]
000142  f44f7441          MOV      r4,#0x304
000146  8004              STRH     r4,[r0,#0]
000148  f642440b          MOV      r4,#0x2c0b
00014c  8044              STRH     r4,[r0,#2]
00014e  f2403405          MOV      r4,#0x305
000152  8004              STRH     r4,[r0,#0]
000154  8043              STRH     r3,[r0,#2]
000156  1c63              ADDS     r3,r4,#1
000158  8003              STRH     r3,[r0,#0]
00015a  f6400307          MOV      r3,#0x807
00015e  8043              STRH     r3,[r0,#2]
000160  1ca3              ADDS     r3,r4,#2
000162  8003              STRH     r3,[r0,#0]
000164  f44f63e1          MOV      r3,#0x708
000168  8043              STRH     r3,[r0,#2]
00016a  1ce3              ADDS     r3,r4,#3
00016c  8003              STRH     r3,[r0,#0]
00016e  f8a0e002          STRH     lr,[r0,#2]
000172  1c5b              ADDS     r3,r3,#1
000174  8003              STRH     r3,[r0,#0]
000176  f2401305          MOV      r3,#0x105
00017a  8043              STRH     r3,[r0,#2]
00017c  1d63              ADDS     r3,r4,#5
00017e  8003              STRH     r3,[r0,#0]
000180  f6407304          MOV      r3,#0xf04
000184  8043              STRH     r3,[r0,#2]
000186  1da3              ADDS     r3,r4,#6
000188  8003              STRH     r3,[r0,#0]
00018a  022b              LSLS     r3,r5,#8
00018c  8043              STRH     r3,[r0,#2]
00018e  1de3              ADDS     r3,r4,#7
000190  8003              STRH     r3,[r0,#0]
000192  8045              STRH     r5,[r0,#2]
000194  1c5b              ADDS     r3,r3,#1
000196  8003              STRH     r3,[r0,#0]
000198  f240430f          MOV      r3,#0x40f
00019c  8043              STRH     r3,[r0,#2]
00019e  f240330e          MOV      r3,#0x30e
0001a2  8003              STRH     r3,[r0,#0]
0001a4  1f63              SUBS     r3,r4,#5
0001a6  8043              STRH     r3,[r0,#2]
0001a8  f240330f          MOV      r3,#0x30f
0001ac  8003              STRH     r3,[r0,#0]
0001ae  f2407301          MOV      r3,#0x701
0001b2  8043              STRH     r3,[r0,#2]
0001b4  0293              LSLS     r3,r2,#10
0001b6  8003              STRH     r3,[r0,#0]
0001b8  f44f5354          MOV      r3,#0x3500
0001bc  8043              STRH     r3,[r0,#2]
0001be  f2404301          MOV      r3,#0x401
0001c2  8003              STRH     r3,[r0,#0]
0001c4  8042              STRH     r2,[r0,#2]
0001c6  1cda              ADDS     r2,r3,#3
0001c8  8002              STRH     r2,[r0,#0]
0001ca  8041              STRH     r1,[r0,#2]
0001cc  f44f62a0          MOV      r2,#0x500
0001d0  8002              STRH     r2,[r0,#0]
0001d2  8041              STRH     r1,[r0,#2]
0001d4  f8a09000          STRH     r9,[r0,#0]
0001d8  8041              STRH     r1,[r0,#2]
0001da  1c92              ADDS     r2,r2,#2
0001dc  8002              STRH     r2,[r0,#0]
0001de  8041              STRH     r1,[r0,#2]
0001e0  1c51              ADDS     r1,r2,#1
0001e2  8001              STRH     r1,[r0,#0]
0001e4  2100              MOVS     r1,#0
0001e6  8041              STRH     r1,[r0,#2]
0001e8  1c92              ADDS     r2,r2,#2
0001ea  8002              STRH     r2,[r0,#0]
0001ec  8041              STRH     r1,[r0,#2]
0001ee  1c52              ADDS     r2,r2,#1
0001f0  8002              STRH     r2,[r0,#0]
0001f2  8041              STRH     r1,[r0,#2]
0001f4  f44f62c0          MOV      r2,#0x600
0001f8  8002              STRH     r2,[r0,#0]
0001fa  8041              STRH     r1,[r0,#2]
0001fc  1d92              ADDS     r2,r2,#6
0001fe  8002              STRH     r2,[r0,#0]
000200  8041              STRH     r1,[r0,#2]
000202  f44f62de          MOV      r2,#0x6f0
000206  8002              STRH     r2,[r0,#0]
000208  8041              STRH     r1,[r0,#2]
00020a  f44f62fe          MOV      r2,#0x7f0
00020e  8002              STRH     r2,[r0,#0]
000210  f2454320          MOV      r3,#0x5420
000214  8043              STRH     r3,[r0,#2]
000216  f24073de          MOV      r3,#0x7de
00021a  8003              STRH     r3,[r0,#0]
00021c  8041              STRH     r1,[r0,#2]
00021e  1c93              ADDS     r3,r2,#2
000220  8003              STRH     r3,[r0,#0]
000222  23df              MOVS     r3,#0xdf
000224  8043              STRH     r3,[r0,#2]
000226  1cd3              ADDS     r3,r2,#3
000228  8003              STRH     r3,[r0,#0]
00022a  f44f6301          MOV      r3,#0x810
00022e  8043              STRH     r3,[r0,#2]
000230  1d13              ADDS     r3,r2,#4
000232  8003              STRH     r3,[r0,#0]
000234  2377              MOVS     r3,#0x77
000236  8043              STRH     r3,[r0,#2]
000238  1d53              ADDS     r3,r2,#5
00023a  8003              STRH     r3,[r0,#0]
00023c  2321              MOVS     r3,#0x21
00023e  8043              STRH     r3,[r0,#2]
000240  8002              STRH     r2,[r0,#0]
000242  8041              STRH     r1,[r0,#2]
000244  2207              MOVS     r2,#7
000246  8002              STRH     r2,[r0,#0]
000248  f2401273          MOV      r2,#0x173
00024c  8042              STRH     r2,[r0,#2]
00024e  f8a0b000          STRH     r11,[r0,#0]
000252  8041              STRH     r1,[r0,#2]
000254  f8a0a000          STRH     r10,[r0,#0]
000258  f8a08002          STRH     r8,[r0,#2]
00025c  8006              STRH     r6,[r0,#0]
00025e  8041              STRH     r1,[r0,#2]
000260  8007              STRH     r7,[r0,#0]
000262  f8a0c002          STRH     r12,[r0,#2]
;;;57     	/* 初始化LCD，写LCD寄存器进行配置 */
;;;58     	LCD_WriteReg(0x0000, 0x0000);
;;;59     	LCD_WriteReg(0x0001, 0x0100);
;;;60     	LCD_WriteReg(0x0002, 0x0100);
;;;61     
;;;62     	/*
;;;63     		R003H 寄存器很关键， Entry Mode ，决定了扫描方向
;;;64     		参见：SPFD5420A.pdf 第15页
;;;65     
;;;66     		240x400屏幕物理坐标(px,py)如下:
;;;67     		    R003 = 0x1018                  R003 = 0x1008
;;;68     		  -------------------          -------------------
;;;69     		 |(0,0)              |        |(0,0)              |
;;;70     		 |                   |        |
;;;71     		 |  ^           ^    |        |   ^           ^   |
;;;72     		 |  |           |    |        |   |           |   |
;;;73     		 |  |           |    |        |   |           |   |
;;;74     		 |  |           |    |        |   |           |   |
;;;75     		 |  |  ------>  |    |        |   | <------   |   |
;;;76     		 |  |           |    |        |   |           |   |
;;;77     		 |  |           |    |        |   |           |   |
;;;78     		 |  |           |    |        |   |           |   |
;;;79     		 |  |           |    |        |   |           |   |
;;;80     		 |                   |        |
;;;81     		 |                   |        |                   |
;;;82     		 |      (x=239,y=399)|        |      (x=239,y=399)|
;;;83     		 |-------------------|        |-------------------|
;;;84     		 |                   |        |                   |
;;;85     		  -------------------          -------------------
;;;86     
;;;87     		按照安富莱开发板LCD的方向，我们期望的虚拟坐标和扫描方向如下：(和上图第1个吻合)
;;;88     		 --------------------------------
;;;89     		|  |(0,0)                        |
;;;90     		|  |     --------->              |
;;;91     		|  |         |                   |
;;;92     		|  |         |                   |
;;;93     		|  |         |                   |
;;;94     		|  |         V                   |
;;;95     		|  |     --------->              |
;;;96     		|  |                    (399,239)|
;;;97     		 --------------------------------
;;;98     
;;;99     		虚拟坐标(x,y) 和物理坐标的转换关系
;;;100    		x = 399 - py;
;;;101    		y = px;
;;;102    
;;;103    		py = 399 - x;
;;;104    		px = y;
;;;105    
;;;106    	*/
;;;107    	LCD_WriteReg(0x0003, 0x1018); /* 0x1018 1030 */
;;;108    
;;;109    	LCD_WriteReg(0x0008, 0x0808);
;;;110    	LCD_WriteReg(0x0009, 0x0001);
;;;111    	LCD_WriteReg(0x000B, 0x0010);
;;;112    	LCD_WriteReg(0x000C, 0x0000);
;;;113    	LCD_WriteReg(0x000F, 0x0000);
;;;114    	LCD_WriteReg(0x0007, 0x0001);
;;;115    	LCD_WriteReg(0x0010, 0x0013);
;;;116    	LCD_WriteReg(0x0011, 0x0501);
;;;117    	LCD_WriteReg(0x0012, 0x0300);
;;;118    	LCD_WriteReg(0x0020, 0x021E);
;;;119    	LCD_WriteReg(0x0021, 0x0202);
;;;120    	LCD_WriteReg(0x0090, 0x8000);
;;;121    	LCD_WriteReg(0x0100, 0x17B0);
;;;122    	LCD_WriteReg(0x0101, 0x0147);
;;;123    	LCD_WriteReg(0x0102, 0x0135);
;;;124    	LCD_WriteReg(0x0103, 0x0700);
;;;125    	LCD_WriteReg(0x0107, 0x0000);
;;;126    	LCD_WriteReg(0x0110, 0x0001);
;;;127    	LCD_WriteReg(0x0210, 0x0000);
;;;128    	LCD_WriteReg(0x0211, 0x00EF);
;;;129    	LCD_WriteReg(0x0212, 0x0000);
;;;130    	LCD_WriteReg(0x0213, 0x018F);
;;;131    	LCD_WriteReg(0x0280, 0x0000);
;;;132    	LCD_WriteReg(0x0281, 0x0004);
;;;133    	LCD_WriteReg(0x0282, 0x0000);
;;;134    	LCD_WriteReg(0x0300, 0x0101);
;;;135    	LCD_WriteReg(0x0301, 0x0B2C);
;;;136    	LCD_WriteReg(0x0302, 0x1030);
;;;137    	LCD_WriteReg(0x0303, 0x3010);
;;;138    	LCD_WriteReg(0x0304, 0x2C0B);
;;;139    	LCD_WriteReg(0x0305, 0x0101);
;;;140    	LCD_WriteReg(0x0306, 0x0807);
;;;141    	LCD_WriteReg(0x0307, 0x0708);
;;;142    	LCD_WriteReg(0x0308, 0x0107);
;;;143    	LCD_WriteReg(0x0309, 0x0105);
;;;144    	LCD_WriteReg(0x030A, 0x0F04);
;;;145    	LCD_WriteReg(0x030B, 0x0F00);
;;;146    	LCD_WriteReg(0x030C, 0x000F);
;;;147    	LCD_WriteReg(0x030D, 0x040F);
;;;148    	LCD_WriteReg(0x030E, 0x0300);
;;;149    	LCD_WriteReg(0x030F, 0x0701);
;;;150    	LCD_WriteReg(0x0400, 0x3500);
;;;151    	LCD_WriteReg(0x0401, 0x0001);
;;;152    	LCD_WriteReg(0x0404, 0x0000);
;;;153    	LCD_WriteReg(0x0500, 0x0000);
;;;154    	LCD_WriteReg(0x0501, 0x0000);
;;;155    	LCD_WriteReg(0x0502, 0x0000);
;;;156    	LCD_WriteReg(0x0503, 0x0000);
;;;157    	LCD_WriteReg(0x0504, 0x0000);
;;;158    	LCD_WriteReg(0x0505, 0x0000);
;;;159    	LCD_WriteReg(0x0600, 0x0000);
;;;160    	LCD_WriteReg(0x0606, 0x0000);
;;;161    	LCD_WriteReg(0x06F0, 0x0000);
;;;162    	LCD_WriteReg(0x07F0, 0x5420);
;;;163    	LCD_WriteReg(0x07DE, 0x0000);
;;;164    	LCD_WriteReg(0x07F2, 0x00DF);
;;;165    	LCD_WriteReg(0x07F3, 0x0810);
;;;166    	LCD_WriteReg(0x07F4, 0x0077);
;;;167    	LCD_WriteReg(0x07F5, 0x0021);
;;;168    	LCD_WriteReg(0x07F0, 0x0000);
;;;169    	LCD_WriteReg(0x0007, 0x0173);
;;;170    
;;;171    	/* 设置显示窗口 WINDOWS */
;;;172    	LCD_WriteReg(0x0210, 0);	/* 水平起始地址 */
;;;173    	LCD_WriteReg(0x0211, 239);	/* 水平结束坐标 */
;;;174    	LCD_WriteReg(0x0212, 0);	/* 垂直起始地址 */
;;;175    	LCD_WriteReg(0x0213, 399);	/* 垂直结束地址 */
;;;176    }
000266  e8bd9ff0          POP      {r4-r12,pc}
;;;177    
                          ENDP


                          AREA ||i.LCD_ReadRAM||, CODE, READONLY, ALIGN=1

                  LCD_ReadRAM PROC
;;;706    */
;;;707    uint16_t LCD_ReadRAM(void)
000000  f04f40d8          MOV      r0,#0x6c000000
;;;708    {
;;;709    #if 0
;;;710      /* Write 16-bit Index (then Read Reg) */
;;;711      LCD->LCD_REG = 0x202; /* Select GRAM Reg */
;;;712    #endif
;;;713    
;;;714      /* Read 16-bit Reg */
;;;715      return LCD->LCD_RAM;
000004  8840              LDRH     r0,[r0,#2]
;;;716    }
000006  4770              BX       lr
;;;717    
                          ENDP


                          AREA ||i.LCD_ReadReg||, CODE, READONLY, ALIGN=1

                  LCD_ReadReg PROC
;;;669    */
;;;670    uint16_t LCD_ReadReg(__IO uint16_t LCD_Reg)
000000  f04f41d8          MOV      r1,#0x6c000000
;;;671    {
;;;672    	/* Write 16-bit Index (then Read Reg) */
;;;673    	LCD->LCD_REG = LCD_Reg;
000004  8008              STRH     r0,[r1,#0]
;;;674    	/* Read 16-bit Reg */
;;;675    	return (LCD->LCD_RAM);
000006  8848              LDRH     r0,[r1,#2]
;;;676    }
000008  4770              BX       lr
;;;677    
                          ENDP


                          AREA ||i.LCD_SetBackColor||, CODE, READONLY, ALIGN=2

                  LCD_SetBackColor PROC
;;;194    */
;;;195    void LCD_SetBackColor(__IO uint16_t Color)
000000  4901              LDR      r1,|L18.8|
;;;196    {
;;;197    	s_BackColor = Color;
000002  8088              STRH     r0,[r1,#4]
;;;198    }
000004  4770              BX       lr
;;;199    
                          ENDP

000006  0000              DCW      0x0000
                  |L18.8|
                          DCD      ||.data||

                          AREA ||i.LCD_SetCursor||, CODE, READONLY, ALIGN=1

                  LCD_SetCursor PROC
;;;236    */
;;;237    void LCD_SetCursor(uint16_t Xpos, uint16_t Ypos)
000000  f44f7300          MOV      r3,#0x200
000004  f04f42d8          MOV      r2,#0x6c000000
000008  8013              STRH     r3,[r2,#0]
00000a  8051              STRH     r1,[r2,#2]
;;;238    {
;;;239    	/*
;;;240    		px，py 是物理坐标， x，y是虚拟坐标
;;;241    		转换公式:
;;;242    		py = 399 - x;
;;;243    		px = y;
;;;244    	*/
;;;245    
;;;246    	LCD_WriteReg(0x0200, Ypos);  		/* px */
;;;247    	LCD_WriteReg(0x0201, 399 - Xpos);	/* py */
00000c  f2a0108f          SUB      r0,r0,#0x18f
000010  4240              RSBS     r0,r0,#0
000012  1c59              ADDS     r1,r3,#1
000014  8011              STRH     r1,[r2,#0]
000016  8050              STRH     r0,[r2,#2]
;;;248    }
000018  4770              BX       lr
;;;249    
                          ENDP


                          AREA ||i.LCD_SetDisplayWindow||, CODE, READONLY, ALIGN=1

                  LCD_SetDisplayWindow PROC
;;;374    */
;;;375    void LCD_SetDisplayWindow(uint16_t Xpos, uint16_t Ypos, uint8_t Height, uint16_t Width)
000000  b470              PUSH     {r4-r6}
000002  2650              MOVS     r6,#0x50
000004  2500              MOVS     r5,#0
000006  f04f44d8          MOV      r4,#0x6c000000
;;;376    {
;;;377    	/* 水平起始地址 */
;;;378    	if (Xpos >= Height)
00000a  4290              CMP      r0,r2
00000c  d304              BCC      |L20.24|
;;;379    	{
;;;380    		LCD_WriteReg(R80, (Xpos - Height + 1));
00000e  1a82              SUBS     r2,r0,r2
000010  1c52              ADDS     r2,r2,#1
000012  8026              STRH     r6,[r4,#0]
000014  8062              STRH     r2,[r4,#2]
000016  e001              B        |L20.28|
                  |L20.24|
000018  8026              STRH     r6,[r4,#0]
00001a  8065              STRH     r5,[r4,#2]
                  |L20.28|
00001c  2251              MOVS     r2,#0x51
00001e  8022              STRH     r2,[r4,#0]
000020  8060              STRH     r0,[r4,#2]
000022  2652              MOVS     r6,#0x52
;;;381    	}
;;;382    	else
;;;383    	{
;;;384    		LCD_WriteReg(R80, 0);
;;;385    	}
;;;386    
;;;387    	/* 水平结束地址 */
;;;388    	LCD_WriteReg(R81, Xpos);
;;;389    
;;;390    	/* 垂直起始地址 */
;;;391    	if (Ypos >= Width)
000024  4299              CMP      r1,r3
000026  d304              BCC      |L20.50|
;;;392    	{
;;;393    		LCD_WriteReg(R82, (Ypos - Width + 1));
000028  1aca              SUBS     r2,r1,r3
00002a  1c52              ADDS     r2,r2,#1
00002c  8026              STRH     r6,[r4,#0]
00002e  8062              STRH     r2,[r4,#2]
000030  e001              B        |L20.54|
                  |L20.50|
000032  8026              STRH     r6,[r4,#0]
000034  8065              STRH     r5,[r4,#2]
                  |L20.54|
000036  2253              MOVS     r2,#0x53
000038  8022              STRH     r2,[r4,#0]
00003a  8061              STRH     r1,[r4,#2]
;;;394    	}
;;;395    	else
;;;396    	{
;;;397    		LCD_WriteReg(R82, 0);
;;;398    	}
;;;399    
;;;400    	/* 垂直结束地址 */
;;;401    	LCD_WriteReg(R83, Ypos);
;;;402    
;;;403    	LCD_SetCursor(Xpos, Ypos);
00003c  bc70              POP      {r4-r6}
00003e  f7ffbffe          B.W      LCD_SetCursor
;;;404    }
;;;405    
                          ENDP


                          AREA ||i.LCD_SetTextColor||, CODE, READONLY, ALIGN=2

                  LCD_SetTextColor PROC
;;;183    */
;;;184    void LCD_SetTextColor(__IO uint16_t Color)
000000  4901              LDR      r1,|L21.8|
;;;185    {
;;;186    	s_TextColor = Color;
000002  8048              STRH     r0,[r1,#2]
;;;187    }
000004  4770              BX       lr
;;;188    
                          ENDP

000006  0000              DCW      0x0000
                  |L21.8|
                          DCD      ||.data||

                          AREA ||i.LCD_SetTransparent||, CODE, READONLY, ALIGN=2

                  LCD_SetTransparent PROC
;;;255    */
;;;256    void LCD_SetTransparent(uint8_t _mode)
000000  4902              LDR      r1,|L22.12|
;;;257    {
;;;258    	if (_mode == 0)
000002  b100              CBZ      r0,|L22.6|
;;;259    	{
;;;260    		s_Transparent = 0;	/* 设置为背景不透明 */
;;;261    	}
;;;262    	else
;;;263    	{
;;;264    		s_Transparent = 1;	/* 设置为背景透明 */
000004  2001              MOVS     r0,#1
                  |L22.6|
000006  7008              STRB     r0,[r1,#0]            ;260
;;;265    	}
;;;266    }
000008  4770              BX       lr
;;;267    
                          ENDP

00000a  0000              DCW      0x0000
                  |L22.12|
                          DCD      ||.data||

                          AREA ||i.LCD_WindowModeDisable||, CODE, READONLY, ALIGN=1

                  LCD_WindowModeDisable PROC
;;;411    */
;;;412    void LCD_WindowModeDisable(void)
000000  b500              PUSH     {lr}
;;;413    {
;;;414    	LCD_SetDisplayWindow(239, 399, 240, 400);
000002  f44f73c8          MOV      r3,#0x190
000006  22f0              MOVS     r2,#0xf0
000008  1e59              SUBS     r1,r3,#1
00000a  20ef              MOVS     r0,#0xef
00000c  f7fffffe          BL       LCD_SetDisplayWindow
000010  2103              MOVS     r1,#3
000012  f04f40d8          MOV      r0,#0x6c000000
000016  8001              STRH     r1,[r0,#0]
000018  f2410118          MOV      r1,#0x1018
00001c  8041              STRH     r1,[r0,#2]
;;;415    	LCD_WriteReg(R3, 0x1018);	/* 这个寄存器改变扫描方向 */
;;;416    }
00001e  bd00              POP      {pc}
;;;417    
                          ENDP


                          AREA ||i.LCD_WriteBMP||, CODE, READONLY, ALIGN=2

                  LCD_WriteBMP PROC
;;;617    */
;;;618    void LCD_WriteBMP(const uint16_t *ptr)
000000  b510              PUSH     {r4,lr}
000002  f2402302          MOV      r3,#0x202
000006  f04f42d8          MOV      r2,#0x6c000000
;;;619    {
;;;620    	uint32_t index = 0;
00000a  2100              MOVS     r1,#0
00000c  8013              STRH     r3,[r2,#0]
;;;621    	const uint16_t *p;
;;;622    
;;;623    	/* 修改扫描方向 */
;;;624    	/* Set GRAM write direction and BGR = 1 */
;;;625    	/* I/D=00 (Horizontal : decrement, Vertical : decrement) */
;;;626    	/* AM=1 (address is updated in vertical writing direction) */
;;;627    	//LCD_WriteReg(R3, 0x1008);
;;;628    
;;;629    	LCD_WriteRAM_Prepare();
;;;630    
;;;631    	p = ptr;
;;;632    	for (index = 0; index < 400 * 240; index++)
00000e  4b04              LDR      r3,|L24.32|
                  |L24.16|
;;;633    	{
;;;634    		/*
;;;635    			armfly : 进行优化, 函数就地展开
;;;636    			LCD_WriteRAM(ptr[index]);
;;;637    
;;;638    			此处可考虑用DMA操作
;;;639    		*/
;;;640    		LCD->LCD_RAM = *p++;
000010  f8304b02          LDRH     r4,[r0],#2
000014  8054              STRH     r4,[r2,#2]
000016  1c49              ADDS     r1,r1,#1              ;632
000018  4299              CMP      r1,r3                 ;632
00001a  d3f9              BCC      |L24.16|
;;;641    	}
;;;642    
;;;643    	/* 还原扫描方向 */
;;;644    	/* Set GRAM write direction and BGR = 1 */
;;;645    	/* I/D = 01 (Horizontal : increment, Vertical : decrement) */
;;;646    	/* AM = 1 (address is updated in vertical writing direction) */
;;;647    	//LCD_WriteReg(R3, 0x1018);
;;;648    }
00001c  bd10              POP      {r4,pc}
;;;649    
                          ENDP

00001e  0000              DCW      0x0000
                  |L24.32|
                          DCD      0x00017700

                          AREA ||i.LCD_WriteRAM||, CODE, READONLY, ALIGN=1

                  LCD_WriteRAM PROC
;;;694    */
;;;695    void LCD_WriteRAM(uint16_t RGB_Code)
000000  f04f41d8          MOV      r1,#0x6c000000
;;;696    {
;;;697    	/* Write 16-bit GRAM Reg */
;;;698    	LCD->LCD_RAM = RGB_Code;
000004  8048              STRH     r0,[r1,#2]
;;;699    }
000006  4770              BX       lr
;;;700    
                          ENDP


                          AREA ||i.LCD_WriteRAM_Prepare||, CODE, READONLY, ALIGN=1

                  LCD_WriteRAM_Prepare PROC
;;;683    */
;;;684    void LCD_WriteRAM_Prepare(void)
000000  f2402002          MOV      r0,#0x202
;;;685    {
;;;686    	LCD->LCD_REG = 0x202;
000004  f04f41d8          MOV      r1,#0x6c000000
000008  8008              STRH     r0,[r1,#0]
;;;687    }
00000a  4770              BX       lr
;;;688    
                          ENDP


                          AREA ||i.LCD_WriteReg||, CODE, READONLY, ALIGN=1

                  LCD_WriteReg PROC
;;;655    */
;;;656    void LCD_WriteReg(__IO uint16_t LCD_Reg, uint16_t LCD_RegValue)
000000  f04f42d8          MOV      r2,#0x6c000000
;;;657    {
;;;658    	/* Write 16-bit Index, then Write Reg */
;;;659    	LCD->LCD_REG = LCD_Reg;
000004  8010              STRH     r0,[r2,#0]
;;;660    	/* Write 16-bit Reg */
;;;661    	LCD->LCD_RAM = LCD_RegValue;
000006  8051              STRH     r1,[r2,#2]
;;;662    }
000008  4770              BX       lr
;;;663    
                          ENDP


                          AREA ||i.delay_lcd||, CODE, READONLY, ALIGN=1

                  delay_lcd PROC
;;;846    
;;;847    void delay_lcd(vu32 nCount)// About delay nCount*10 ms
000000  f24841d0          MOV      r1,#0x84d0
;;;848     {
;;;849       vu32 index = 0; 
;;;850       for(index = (34000 * nCount); index != 0; index--)
000004  4348              MULS     r0,r1,r0
000006  e000              B        |L28.10|
                  |L28.8|
000008  1e40              SUBS     r0,r0,#1
                  |L28.10|
00000a  2800              CMP      r0,#0
00000c  d1fc              BNE      |L28.8|
;;;851       {
;;;852       }
;;;853     }
00000e  4770              BX       lr
;;;854    
                          ENDP


                          AREA ||.constdata||, DATA, READONLY, ALIGN=1

                  Ascii_16x24
000000  00000000          DCW      0x0000,0x0000
000004  00000000          DCW      0x0000,0x0000
000008  00000000          DCW      0x0000,0x0000
00000c  00000000          DCW      0x0000,0x0000
000010  00000000          DCW      0x0000,0x0000
000014  00000000          DCW      0x0000,0x0000
000018  00000000          DCW      0x0000,0x0000
00001c  00000000          DCW      0x0000,0x0000
000020  00000000          DCW      0x0000,0x0000
000024  00000000          DCW      0x0000,0x0000
000028  00000000          DCW      0x0000,0x0000
00002c  00000000          DCW      0x0000,0x0000
000030  00000180          DCW      0x0000,0x0180
000034  01800180          DCW      0x0180,0x0180
000038  01800180          DCW      0x0180,0x0180
00003c  01800180          DCW      0x0180,0x0180
000040  01800180          DCW      0x0180,0x0180
000044  01800180          DCW      0x0180,0x0180
000048  01800180          DCW      0x0180,0x0180
00004c  00000000          DCW      0x0000,0x0000
000050  01800180          DCW      0x0180,0x0180
000054  00000000          DCW      0x0000,0x0000
000058  00000000          DCW      0x0000,0x0000
00005c  00000000          DCW      0x0000,0x0000
000060  00000000          DCW      0x0000,0x0000
000064  00cc00cc          DCW      0x00cc,0x00cc
000068  00cc00cc          DCW      0x00cc,0x00cc
00006c  00cc00cc          DCW      0x00cc,0x00cc
000070  00000000          DCW      0x0000,0x0000
000074  00000000          DCW      0x0000,0x0000
000078  00000000          DCW      0x0000,0x0000
00007c  00000000          DCW      0x0000,0x0000
000080  00000000          DCW      0x0000,0x0000
000084  00000000          DCW      0x0000,0x0000
000088  00000000          DCW      0x0000,0x0000
00008c  00000000          DCW      0x0000,0x0000
000090  00000000          DCW      0x0000,0x0000
000094  00000000          DCW      0x0000,0x0000
000098  00000000          DCW      0x0000,0x0000
00009c  0c600c60          DCW      0x0c60,0x0c60
0000a0  0c600630          DCW      0x0c60,0x0630
0000a4  06301ffe          DCW      0x0630,0x1ffe
0000a8  1ffe0630          DCW      0x1ffe,0x0630
0000ac  07380318          DCW      0x0738,0x0318
0000b0  1ffe1ffe          DCW      0x1ffe,0x1ffe
0000b4  03180318          DCW      0x0318,0x0318
0000b8  018c018c          DCW      0x018c,0x018c
0000bc  018c0000          DCW      0x018c,0x0000
0000c0  00000080          DCW      0x0000,0x0080
0000c4  03e00ff8          DCW      0x03e0,0x0ff8
0000c8  0e9c1c8c          DCW      0x0e9c,0x1c8c
0000cc  188c008c          DCW      0x188c,0x008c
0000d0  009801f8          DCW      0x0098,0x01f8
0000d4  07e00e80          DCW      0x07e0,0x0e80
0000d8  1c80188c          DCW      0x1c80,0x188c
0000dc  188c189c          DCW      0x188c,0x189c
0000e0  0cb80ff0          DCW      0x0cb8,0x0ff0
0000e4  03e00080          DCW      0x03e0,0x0080
0000e8  00800000          DCW      0x0080,0x0000
0000ec  00000000          DCW      0x0000,0x0000
0000f0  00000000          DCW      0x0000,0x0000
0000f4  0000180e          DCW      0x0000,0x180e
0000f8  0c1b0c11          DCW      0x0c1b,0x0c11
0000fc  06110611          DCW      0x0611,0x0611
000100  03110311          DCW      0x0311,0x0311
000104  019b018e          DCW      0x019b,0x018e
000108  38c06cc0          DCW      0x38c0,0x6cc0
00010c  44604460          DCW      0x4460,0x4460
000110  44304430          DCW      0x4430,0x4430
000114  44186c18          DCW      0x4418,0x6c18
000118  380c0000          DCW      0x380c,0x0000
00011c  00000000          DCW      0x0000,0x0000
000120  000001e0          DCW      0x0000,0x01e0
000124  03f00738          DCW      0x03f0,0x0738
000128  06180618          DCW      0x0618,0x0618
00012c  033001f0          DCW      0x0330,0x01f0
000130  00f000f8          DCW      0x00f0,0x00f8
000134  319c330e          DCW      0x319c,0x330e
000138  1e061c06          DCW      0x1e06,0x1c06
00013c  1c063f06          DCW      0x1c06,0x3f06
000140  73fc21f0          DCW      0x73fc,0x21f0
000144  00000000          DCW      0x0000,0x0000
000148  00000000          DCW      0x0000,0x0000
00014c  00000000          DCW      0x0000,0x0000
000150  00000000          DCW      0x0000,0x0000
000154  000c000c          DCW      0x000c,0x000c
000158  000c000c          DCW      0x000c,0x000c
00015c  000c000c          DCW      0x000c,0x000c
000160  00000000          DCW      0x0000,0x0000
000164  00000000          DCW      0x0000,0x0000
000168  00000000          DCW      0x0000,0x0000
00016c  00000000          DCW      0x0000,0x0000
000170  00000000          DCW      0x0000,0x0000
000174  00000000          DCW      0x0000,0x0000
000178  00000000          DCW      0x0000,0x0000
00017c  00000000          DCW      0x0000,0x0000
000180  00000200          DCW      0x0000,0x0200
000184  03000180          DCW      0x0300,0x0180
000188  00c000c0          DCW      0x00c0,0x00c0
00018c  00600060          DCW      0x0060,0x0060
000190  00300030          DCW      0x0030,0x0030
000194  00300030          DCW      0x0030,0x0030
000198  00300030          DCW      0x0030,0x0030
00019c  00300030          DCW      0x0030,0x0030
0001a0  00600060          DCW      0x0060,0x0060
0001a4  00c000c0          DCW      0x00c0,0x00c0
0001a8  01800300          DCW      0x0180,0x0300
0001ac  02000000          DCW      0x0200,0x0000
0001b0  00000020          DCW      0x0000,0x0020
0001b4  006000c0          DCW      0x0060,0x00c0
0001b8  01800180          DCW      0x0180,0x0180
0001bc  03000300          DCW      0x0300,0x0300
0001c0  06000600          DCW      0x0600,0x0600
0001c4  06000600          DCW      0x0600,0x0600
0001c8  06000600          DCW      0x0600,0x0600
0001cc  06000600          DCW      0x0600,0x0600
0001d0  03000300          DCW      0x0300,0x0300
0001d4  01800180          DCW      0x0180,0x0180
0001d8  00c00060          DCW      0x00c0,0x0060
0001dc  00200000          DCW      0x0020,0x0000
0001e0  00000000          DCW      0x0000,0x0000
0001e4  00000000          DCW      0x0000,0x0000
0001e8  00000000          DCW      0x0000,0x0000
0001ec  00c000c0          DCW      0x00c0,0x00c0
0001f0  06d807f8          DCW      0x06d8,0x07f8
0001f4  01e00330          DCW      0x01e0,0x0330
0001f8  07380000          DCW      0x0738,0x0000
0001fc  00000000          DCW      0x0000,0x0000
000200  00000000          DCW      0x0000,0x0000
000204  00000000          DCW      0x0000,0x0000
000208  00000000          DCW      0x0000,0x0000
00020c  00000000          DCW      0x0000,0x0000
000210  00000000          DCW      0x0000,0x0000
000214  00000000          DCW      0x0000,0x0000
000218  00000000          DCW      0x0000,0x0000
00021c  01800180          DCW      0x0180,0x0180
000220  01800180          DCW      0x0180,0x0180
000224  01803ffc          DCW      0x0180,0x3ffc
000228  3ffc0180          DCW      0x3ffc,0x0180
00022c  01800180          DCW      0x0180,0x0180
000230  01800180          DCW      0x0180,0x0180
000234  00000000          DCW      0x0000,0x0000
000238  00000000          DCW      0x0000,0x0000
00023c  00000000          DCW      0x0000,0x0000
000240  00000000          DCW      0x0000,0x0000
000244  00000000          DCW      0x0000,0x0000
000248  00000000          DCW      0x0000,0x0000
00024c  00000000          DCW      0x0000,0x0000
000250  00000000          DCW      0x0000,0x0000
000254  00000000          DCW      0x0000,0x0000
000258  00000000          DCW      0x0000,0x0000
00025c  00000000          DCW      0x0000,0x0000
000260  00000180          DCW      0x0000,0x0180
000264  01800100          DCW      0x0180,0x0100
000268  01000080          DCW      0x0100,0x0080
00026c  00000000          DCW      0x0000,0x0000
000270  00000000          DCW      0x0000,0x0000
000274  00000000          DCW      0x0000,0x0000
000278  00000000          DCW      0x0000,0x0000
00027c  00000000          DCW      0x0000,0x0000
000280  00000000          DCW      0x0000,0x0000
000284  00000000          DCW      0x0000,0x0000
000288  07e007e0          DCW      0x07e0,0x07e0
00028c  00000000          DCW      0x0000,0x0000
000290  00000000          DCW      0x0000,0x0000
000294  00000000          DCW      0x0000,0x0000
000298  00000000          DCW      0x0000,0x0000
00029c  00000000          DCW      0x0000,0x0000
0002a0  00000000          DCW      0x0000,0x0000
0002a4  00000000          DCW      0x0000,0x0000
0002a8  00000000          DCW      0x0000,0x0000
0002ac  00000000          DCW      0x0000,0x0000
0002b0  00000000          DCW      0x0000,0x0000
0002b4  00000000          DCW      0x0000,0x0000
0002b8  00000000          DCW      0x0000,0x0000
0002bc  00000000          DCW      0x0000,0x0000
0002c0  000000c0          DCW      0x0000,0x00c0
0002c4  00c00000          DCW      0x00c0,0x0000
0002c8  00000000          DCW      0x0000,0x0000
0002cc  00000000          DCW      0x0000,0x0000
0002d0  00000c00          DCW      0x0000,0x0c00
0002d4  0c000600          DCW      0x0c00,0x0600
0002d8  06000600          DCW      0x0600,0x0600
0002dc  03000300          DCW      0x0300,0x0300
0002e0  03000380          DCW      0x0300,0x0380
0002e4  01800180          DCW      0x0180,0x0180
0002e8  018000c0          DCW      0x0180,0x00c0
0002ec  00c000c0          DCW      0x00c0,0x00c0
0002f0  00600060          DCW      0x0060,0x0060
0002f4  00000000          DCW      0x0000,0x0000
0002f8  00000000          DCW      0x0000,0x0000
0002fc  00000000          DCW      0x0000,0x0000
000300  000003e0          DCW      0x0000,0x03e0
000304  07f00e38          DCW      0x07f0,0x0e38
000308  0c18180c          DCW      0x0c18,0x180c
00030c  180c180c          DCW      0x180c,0x180c
000310  180c180c          DCW      0x180c,0x180c
000314  180c180c          DCW      0x180c,0x180c
000318  180c180c          DCW      0x180c,0x180c
00031c  0c180e38          DCW      0x0c18,0x0e38
000320  07f003e0          DCW      0x07f0,0x03e0
000324  00000000          DCW      0x0000,0x0000
000328  00000000          DCW      0x0000,0x0000
00032c  00000000          DCW      0x0000,0x0000
000330  00000100          DCW      0x0000,0x0100
000334  018001c0          DCW      0x0180,0x01c0
000338  01f00198          DCW      0x01f0,0x0198
00033c  01880180          DCW      0x0188,0x0180
000340  01800180          DCW      0x0180,0x0180
000344  01800180          DCW      0x0180,0x0180
000348  01800180          DCW      0x0180,0x0180
00034c  01800180          DCW      0x0180,0x0180
000350  01800180          DCW      0x0180,0x0180
000354  00000000          DCW      0x0000,0x0000
000358  00000000          DCW      0x0000,0x0000
00035c  00000000          DCW      0x0000,0x0000
000360  000003e0          DCW      0x0000,0x03e0
000364  0ff80c18          DCW      0x0ff8,0x0c18
000368  180c180c          DCW      0x180c,0x180c
00036c  18001800          DCW      0x1800,0x1800
000370  0c000600          DCW      0x0c00,0x0600
000374  03000180          DCW      0x0300,0x0180
000378  00c00060          DCW      0x00c0,0x0060
00037c  00300018          DCW      0x0030,0x0018
000380  1ffc1ffc          DCW      0x1ffc,0x1ffc
000384  00000000          DCW      0x0000,0x0000
000388  00000000          DCW      0x0000,0x0000
00038c  00000000          DCW      0x0000,0x0000
000390  000001e0          DCW      0x0000,0x01e0
000394  07f80e18          DCW      0x07f8,0x0e18
000398  0c0c0c0c          DCW      0x0c0c,0x0c0c
00039c  0c000600          DCW      0x0c00,0x0600
0003a0  03c007c0          DCW      0x03c0,0x07c0
0003a4  0c001800          DCW      0x0c00,0x1800
0003a8  1800180c          DCW      0x1800,0x180c
0003ac  180c0c18          DCW      0x180c,0x0c18
0003b0  07f803e0          DCW      0x07f8,0x03e0
0003b4  00000000          DCW      0x0000,0x0000
0003b8  00000000          DCW      0x0000,0x0000
0003bc  00000000          DCW      0x0000,0x0000
0003c0  00000c00          DCW      0x0000,0x0c00
0003c4  0e000f00          DCW      0x0e00,0x0f00
0003c8  0f000d80          DCW      0x0f00,0x0d80
0003cc  0cc00c60          DCW      0x0cc0,0x0c60
0003d0  0c600c30          DCW      0x0c60,0x0c30
0003d4  0c180c0c          DCW      0x0c18,0x0c0c
0003d8  3ffc3ffc          DCW      0x3ffc,0x3ffc
0003dc  0c000c00          DCW      0x0c00,0x0c00
0003e0  0c000c00          DCW      0x0c00,0x0c00
0003e4  00000000          DCW      0x0000,0x0000
0003e8  00000000          DCW      0x0000,0x0000
0003ec  00000000          DCW      0x0000,0x0000
0003f0  00000ff8          DCW      0x0000,0x0ff8
0003f4  0ff80018          DCW      0x0ff8,0x0018
0003f8  0018000c          DCW      0x0018,0x000c
0003fc  03ec07fc          DCW      0x03ec,0x07fc
000400  0e1c1c00          DCW      0x0e1c,0x1c00
000404  18001800          DCW      0x1800,0x1800
000408  1800180c          DCW      0x1800,0x180c
00040c  0c1c0e18          DCW      0x0c1c,0x0e18
000410  07f803e0          DCW      0x07f8,0x03e0
000414  00000000          DCW      0x0000,0x0000
000418  00000000          DCW      0x0000,0x0000
00041c  00000000          DCW      0x0000,0x0000
000420  000007c0          DCW      0x0000,0x07c0
000424  0ff01c38          DCW      0x0ff0,0x1c38
000428  18180018          DCW      0x1818,0x0018
00042c  000c03cc          DCW      0x000c,0x03cc
000430  0fec0e3c          DCW      0x0fec,0x0e3c
000434  1c1c180c          DCW      0x1c1c,0x180c
000438  180c180c          DCW      0x180c,0x180c
00043c  1c180e38          DCW      0x1c18,0x0e38
000440  07f003e0          DCW      0x07f0,0x03e0
000444  00000000          DCW      0x0000,0x0000
000448  00000000          DCW      0x0000,0x0000
00044c  00000000          DCW      0x0000,0x0000
000450  00001ffc          DCW      0x0000,0x1ffc
000454  1ffc0c00          DCW      0x1ffc,0x0c00
000458  06000600          DCW      0x0600,0x0600
00045c  03000380          DCW      0x0300,0x0380
000460  018001c0          DCW      0x0180,0x01c0
000464  00c000e0          DCW      0x00c0,0x00e0
000468  00600060          DCW      0x0060,0x0060
00046c  00700030          DCW      0x0070,0x0030
000470  00300030          DCW      0x0030,0x0030
000474  00000000          DCW      0x0000,0x0000
000478  00000000          DCW      0x0000,0x0000
00047c  00000000          DCW      0x0000,0x0000
000480  000003e0          DCW      0x0000,0x03e0
000484  07f00e38          DCW      0x07f0,0x0e38
000488  0c180c18          DCW      0x0c18,0x0c18
00048c  0c180638          DCW      0x0c18,0x0638
000490  07f007f0          DCW      0x07f0,0x07f0
000494  0c18180c          DCW      0x0c18,0x180c
000498  180c180c          DCW      0x180c,0x180c
00049c  180c0c38          DCW      0x180c,0x0c38
0004a0  0ff803e0          DCW      0x0ff8,0x03e0
0004a4  00000000          DCW      0x0000,0x0000
0004a8  00000000          DCW      0x0000,0x0000
0004ac  00000000          DCW      0x0000,0x0000
0004b0  000003e0          DCW      0x0000,0x03e0
0004b4  07f00e38          DCW      0x07f0,0x0e38
0004b8  0c1c180c          DCW      0x0c1c,0x180c
0004bc  180c180c          DCW      0x180c,0x180c
0004c0  1c1c1e38          DCW      0x1c1c,0x1e38
0004c4  1bf819e0          DCW      0x1bf8,0x19e0
0004c8  18000c00          DCW      0x1800,0x0c00
0004cc  0c000e1c          DCW      0x0c00,0x0e1c
0004d0  07f801f0          DCW      0x07f8,0x01f0
0004d4  00000000          DCW      0x0000,0x0000
0004d8  00000000          DCW      0x0000,0x0000
0004dc  00000000          DCW      0x0000,0x0000
0004e0  00000000          DCW      0x0000,0x0000
0004e4  00000000          DCW      0x0000,0x0000
0004e8  00000000          DCW      0x0000,0x0000
0004ec  01800180          DCW      0x0180,0x0180
0004f0  00000000          DCW      0x0000,0x0000
0004f4  00000000          DCW      0x0000,0x0000
0004f8  00000000          DCW      0x0000,0x0000
0004fc  00000000          DCW      0x0000,0x0000
000500  01800180          DCW      0x0180,0x0180
000504  00000000          DCW      0x0000,0x0000
000508  00000000          DCW      0x0000,0x0000
00050c  00000000          DCW      0x0000,0x0000
000510  00000000          DCW      0x0000,0x0000
000514  00000000          DCW      0x0000,0x0000
000518  00000000          DCW      0x0000,0x0000
00051c  01800180          DCW      0x0180,0x0180
000520  00000000          DCW      0x0000,0x0000
000524  00000000          DCW      0x0000,0x0000
000528  00000000          DCW      0x0000,0x0000
00052c  00000000          DCW      0x0000,0x0000
000530  01800180          DCW      0x0180,0x0180
000534  01000100          DCW      0x0100,0x0100
000538  00800000          DCW      0x0080,0x0000
00053c  00000000          DCW      0x0000,0x0000
000540  00000000          DCW      0x0000,0x0000
000544  00000000          DCW      0x0000,0x0000
000548  00000000          DCW      0x0000,0x0000
00054c  00000000          DCW      0x0000,0x0000
000550  10001c00          DCW      0x1000,0x1c00
000554  0f8003e0          DCW      0x0f80,0x03e0
000558  00f80018          DCW      0x00f8,0x0018
00055c  00f803e0          DCW      0x00f8,0x03e0
000560  0f801c00          DCW      0x0f80,0x1c00
000564  10000000          DCW      0x1000,0x0000
000568  00000000          DCW      0x0000,0x0000
00056c  00000000          DCW      0x0000,0x0000
000570  00000000          DCW      0x0000,0x0000
000574  00000000          DCW      0x0000,0x0000
000578  00000000          DCW      0x0000,0x0000
00057c  00000000          DCW      0x0000,0x0000
000580  1ff80000          DCW      0x1ff8,0x0000
000584  00000000          DCW      0x0000,0x0000
000588  1ff80000          DCW      0x1ff8,0x0000
00058c  00000000          DCW      0x0000,0x0000
000590  00000000          DCW      0x0000,0x0000
000594  00000000          DCW      0x0000,0x0000
000598  00000000          DCW      0x0000,0x0000
00059c  00000000          DCW      0x0000,0x0000
0005a0  00000000          DCW      0x0000,0x0000
0005a4  00000000          DCW      0x0000,0x0000
0005a8  00000000          DCW      0x0000,0x0000
0005ac  00000000          DCW      0x0000,0x0000
0005b0  00080038          DCW      0x0008,0x0038
0005b4  01f007c0          DCW      0x01f0,0x07c0
0005b8  1f001800          DCW      0x1f00,0x1800
0005bc  1f0007c0          DCW      0x1f00,0x07c0
0005c0  01f00038          DCW      0x01f0,0x0038
0005c4  00080000          DCW      0x0008,0x0000
0005c8  00000000          DCW      0x0000,0x0000
0005cc  00000000          DCW      0x0000,0x0000
0005d0  000003e0          DCW      0x0000,0x03e0
0005d4  0ff80c18          DCW      0x0ff8,0x0c18
0005d8  180c180c          DCW      0x180c,0x180c
0005dc  18000c00          DCW      0x1800,0x0c00
0005e0  06000300          DCW      0x0600,0x0300
0005e4  018000c0          DCW      0x0180,0x00c0
0005e8  00c000c0          DCW      0x00c0,0x00c0
0005ec  00000000          DCW      0x0000,0x0000
0005f0  00c000c0          DCW      0x00c0,0x00c0
0005f4  00000000          DCW      0x0000,0x0000
0005f8  00000000          DCW      0x0000,0x0000
0005fc  00000000          DCW      0x0000,0x0000
000600  00000000          DCW      0x0000,0x0000
000604  07e01818          DCW      0x07e0,0x1818
000608  200429c2          DCW      0x2004,0x29c2
00060c  4a224411          DCW      0x4a22,0x4411
000610  44094409          DCW      0x4409,0x4409
000614  44092209          DCW      0x4409,0x2209
000618  13110ce2          DCW      0x1311,0x0ce2
00061c  40022004          DCW      0x4002,0x2004
000620  181807e0          DCW      0x1818,0x07e0
000624  00000000          DCW      0x0000,0x0000
000628  00000000          DCW      0x0000,0x0000
00062c  00000000          DCW      0x0000,0x0000
000630  00000380          DCW      0x0000,0x0380
000634  038006c0          DCW      0x0380,0x06c0
000638  06c006c0          DCW      0x06c0,0x06c0
00063c  0c600c60          DCW      0x0c60,0x0c60
000640  18301830          DCW      0x1830,0x1830
000644  18303ff8          DCW      0x1830,0x3ff8
000648  3ff8701c          DCW      0x3ff8,0x701c
00064c  600c600c          DCW      0x600c,0x600c
000650  c006c006          DCW      0xc006,0xc006
000654  00000000          DCW      0x0000,0x0000
000658  00000000          DCW      0x0000,0x0000
00065c  00000000          DCW      0x0000,0x0000
000660  000003fc          DCW      0x0000,0x03fc
000664  0ffc0c0c          DCW      0x0ffc,0x0c0c
000668  180c180c          DCW      0x180c,0x180c
00066c  180c0c0c          DCW      0x180c,0x0c0c
000670  07fc0ffc          DCW      0x07fc,0x0ffc
000674  180c300c          DCW      0x180c,0x300c
000678  300c300c          DCW      0x300c,0x300c
00067c  300c180c          DCW      0x300c,0x180c
000680  1ffc07fc          DCW      0x1ffc,0x07fc
000684  00000000          DCW      0x0000,0x0000
000688  00000000          DCW      0x0000,0x0000
00068c  00000000          DCW      0x0000,0x0000
000690  000007c0          DCW      0x0000,0x07c0
000694  1ff03838          DCW      0x1ff0,0x3838
000698  301c700c          DCW      0x301c,0x700c
00069c  60060006          DCW      0x6006,0x0006
0006a0  00060006          DCW      0x0006,0x0006
0006a4  00060006          DCW      0x0006,0x0006
0006a8  00066006          DCW      0x0006,0x6006
0006ac  700c301c          DCW      0x700c,0x301c
0006b0  1ff007e0          DCW      0x1ff0,0x07e0
0006b4  00000000          DCW      0x0000,0x0000
0006b8  00000000          DCW      0x0000,0x0000
0006bc  00000000          DCW      0x0000,0x0000
0006c0  000003fe          DCW      0x0000,0x03fe
0006c4  0ffe0e06          DCW      0x0ffe,0x0e06
0006c8  18061806          DCW      0x1806,0x1806
0006cc  30063006          DCW      0x3006,0x3006
0006d0  30063006          DCW      0x3006,0x3006
0006d4  30063006          DCW      0x3006,0x3006
0006d8  30061806          DCW      0x3006,0x1806
0006dc  18060e06          DCW      0x1806,0x0e06
0006e0  0ffe03fe          DCW      0x0ffe,0x03fe
0006e4  00000000          DCW      0x0000,0x0000
0006e8  00000000          DCW      0x0000,0x0000
0006ec  00000000          DCW      0x0000,0x0000
0006f0  00003ffc          DCW      0x0000,0x3ffc
0006f4  3ffc000c          DCW      0x3ffc,0x000c
0006f8  000c000c          DCW      0x000c,0x000c
0006fc  000c000c          DCW      0x000c,0x000c
000700  1ffc1ffc          DCW      0x1ffc,0x1ffc
000704  000c000c          DCW      0x000c,0x000c
000708  000c000c          DCW      0x000c,0x000c
00070c  000c000c          DCW      0x000c,0x000c
000710  3ffc3ffc          DCW      0x3ffc,0x3ffc
000714  00000000          DCW      0x0000,0x0000
000718  00000000          DCW      0x0000,0x0000
00071c  00000000          DCW      0x0000,0x0000
000720  00003ff8          DCW      0x0000,0x3ff8
000724  3ff80018          DCW      0x3ff8,0x0018
000728  00180018          DCW      0x0018,0x0018
00072c  00180018          DCW      0x0018,0x0018
000730  1ff81ff8          DCW      0x1ff8,0x1ff8
000734  00180018          DCW      0x0018,0x0018
000738  00180018          DCW      0x0018,0x0018
00073c  00180018          DCW      0x0018,0x0018
000740  00180018          DCW      0x0018,0x0018
000744  00000000          DCW      0x0000,0x0000
000748  00000000          DCW      0x0000,0x0000
00074c  00000000          DCW      0x0000,0x0000
000750  00000fe0          DCW      0x0000,0x0fe0
000754  3ff8783c          DCW      0x3ff8,0x783c
000758  600ee006          DCW      0x600e,0xe006
00075c  c0070003          DCW      0xc007,0x0003
000760  0003fe03          DCW      0x0003,0xfe03
000764  fe03c003          DCW      0xfe03,0xc003
000768  c007c006          DCW      0xc007,0xc006
00076c  c00ef03c          DCW      0xc00e,0xf03c
000770  3ff80fe0          DCW      0x3ff8,0x0fe0
000774  00000000          DCW      0x0000,0x0000
000778  00000000          DCW      0x0000,0x0000
00077c  00000000          DCW      0x0000,0x0000
000780  0000300c          DCW      0x0000,0x300c
000784  300c300c          DCW      0x300c,0x300c
000788  300c300c          DCW      0x300c,0x300c
00078c  300c300c          DCW      0x300c,0x300c
000790  3ffc3ffc          DCW      0x3ffc,0x3ffc
000794  300c300c          DCW      0x300c,0x300c
000798  300c300c          DCW      0x300c,0x300c
00079c  300c300c          DCW      0x300c,0x300c
0007a0  300c300c          DCW      0x300c,0x300c
0007a4  00000000          DCW      0x0000,0x0000
0007a8  00000000          DCW      0x0000,0x0000
0007ac  00000000          DCW      0x0000,0x0000
0007b0  00000180          DCW      0x0000,0x0180
0007b4  01800180          DCW      0x0180,0x0180
0007b8  01800180          DCW      0x0180,0x0180
0007bc  01800180          DCW      0x0180,0x0180
0007c0  01800180          DCW      0x0180,0x0180
0007c4  01800180          DCW      0x0180,0x0180
0007c8  01800180          DCW      0x0180,0x0180
0007cc  01800180          DCW      0x0180,0x0180
0007d0  01800180          DCW      0x0180,0x0180
0007d4  00000000          DCW      0x0000,0x0000
0007d8  00000000          DCW      0x0000,0x0000
0007dc  00000000          DCW      0x0000,0x0000
0007e0  00000600          DCW      0x0000,0x0600
0007e4  06000600          DCW      0x0600,0x0600
0007e8  06000600          DCW      0x0600,0x0600
0007ec  06000600          DCW      0x0600,0x0600
0007f0  06000600          DCW      0x0600,0x0600
0007f4  06000600          DCW      0x0600,0x0600
0007f8  06000618          DCW      0x0600,0x0618
0007fc  06180738          DCW      0x0618,0x0738
000800  03f001e0          DCW      0x03f0,0x01e0
000804  00000000          DCW      0x0000,0x0000
000808  00000000          DCW      0x0000,0x0000
00080c  00000000          DCW      0x0000,0x0000
000810  00003006          DCW      0x0000,0x3006
000814  18060c06          DCW      0x1806,0x0c06
000818  06060306          DCW      0x0606,0x0306
00081c  018600c6          DCW      0x0186,0x00c6
000820  00660076          DCW      0x0066,0x0076
000824  00de018e          DCW      0x00de,0x018e
000828  03060606          DCW      0x0306,0x0606
00082c  0c061806          DCW      0x0c06,0x1806
000830  30066006          DCW      0x3006,0x6006
000834  00000000          DCW      0x0000,0x0000
000838  00000000          DCW      0x0000,0x0000
00083c  00000000          DCW      0x0000,0x0000
000840  00000018          DCW      0x0000,0x0018
000844  00180018          DCW      0x0018,0x0018
000848  00180018          DCW      0x0018,0x0018
00084c  00180018          DCW      0x0018,0x0018
000850  00180018          DCW      0x0018,0x0018
000854  00180018          DCW      0x0018,0x0018
000858  00180018          DCW      0x0018,0x0018
00085c  00180018          DCW      0x0018,0x0018
000860  1ff81ff8          DCW      0x1ff8,0x1ff8
000864  00000000          DCW      0x0000,0x0000
000868  00000000          DCW      0x0000,0x0000
00086c  00000000          DCW      0x0000,0x0000
000870  0000e00e          DCW      0x0000,0xe00e
000874  f01ef01e          DCW      0xf01e,0xf01e
000878  f01ed836          DCW      0xf01e,0xd836
00087c  d836d836          DCW      0xd836,0xd836
000880  d836cc66          DCW      0xd836,0xcc66
000884  cc66cc66          DCW      0xcc66,0xcc66
000888  c6c6c6c6          DCW      0xc6c6,0xc6c6
00088c  c6c6c6c6          DCW      0xc6c6,0xc6c6
000890  c386c386          DCW      0xc386,0xc386
000894  00000000          DCW      0x0000,0x0000
000898  00000000          DCW      0x0000,0x0000
00089c  00000000          DCW      0x0000,0x0000
0008a0  0000300c          DCW      0x0000,0x300c
0008a4  301c303c          DCW      0x301c,0x303c
0008a8  303c306c          DCW      0x303c,0x306c
0008ac  306c30cc          DCW      0x306c,0x30cc
0008b0  30cc318c          DCW      0x30cc,0x318c
0008b4  330c330c          DCW      0x330c,0x330c
0008b8  360c360c          DCW      0x360c,0x360c
0008bc  3c0c3c0c          DCW      0x3c0c,0x3c0c
0008c0  380c300c          DCW      0x380c,0x300c
0008c4  00000000          DCW      0x0000,0x0000
0008c8  00000000          DCW      0x0000,0x0000
0008cc  00000000          DCW      0x0000,0x0000
0008d0  000007e0          DCW      0x0000,0x07e0
0008d4  1ff8381c          DCW      0x1ff8,0x381c
0008d8  700e6006          DCW      0x700e,0x6006
0008dc  c003c003          DCW      0xc003,0xc003
0008e0  c003c003          DCW      0xc003,0xc003
0008e4  c003c003          DCW      0xc003,0xc003
0008e8  c0036006          DCW      0xc003,0x6006
0008ec  700e381c          DCW      0x700e,0x381c
0008f0  1ff807e0          DCW      0x1ff8,0x07e0
0008f4  00000000          DCW      0x0000,0x0000
0008f8  00000000          DCW      0x0000,0x0000
0008fc  00000000          DCW      0x0000,0x0000
000900  00000ffc          DCW      0x0000,0x0ffc
000904  1ffc380c          DCW      0x1ffc,0x380c
000908  300c300c          DCW      0x300c,0x300c
00090c  300c300c          DCW      0x300c,0x300c
000910  180c1ffc          DCW      0x180c,0x1ffc
000914  07fc000c          DCW      0x07fc,0x000c
000918  000c000c          DCW      0x000c,0x000c
00091c  000c000c          DCW      0x000c,0x000c
000920  000c000c          DCW      0x000c,0x000c
000924  00000000          DCW      0x0000,0x0000
000928  00000000          DCW      0x0000,0x0000
00092c  00000000          DCW      0x0000,0x0000
000930  000007e0          DCW      0x0000,0x07e0
000934  1ff8381c          DCW      0x1ff8,0x381c
000938  700e6006          DCW      0x700e,0x6006
00093c  e003c003          DCW      0xe003,0xc003
000940  c003c003          DCW      0xc003,0xc003
000944  c003c003          DCW      0xc003,0xc003
000948  e0076306          DCW      0xe007,0x6306
00094c  3f0e3c1c          DCW      0x3f0e,0x3c1c
000950  3ff8f7e0          DCW      0x3ff8,0xf7e0
000954  c0000000          DCW      0xc000,0x0000
000958  00000000          DCW      0x0000,0x0000
00095c  00000000          DCW      0x0000,0x0000
000960  00000ffe          DCW      0x0000,0x0ffe
000964  1ffe3806          DCW      0x1ffe,0x3806
000968  30063006          DCW      0x3006,0x3006
00096c  30063806          DCW      0x3006,0x3806
000970  1ffe07fe          DCW      0x1ffe,0x07fe
000974  03060606          DCW      0x0306,0x0606
000978  0c061806          DCW      0x0c06,0x1806
00097c  18063006          DCW      0x1806,0x3006
000980  30066006          DCW      0x3006,0x6006
000984  00000000          DCW      0x0000,0x0000
000988  00000000          DCW      0x0000,0x0000
00098c  00000000          DCW      0x0000,0x0000
000990  000003e0          DCW      0x0000,0x03e0
000994  0ff80c1c          DCW      0x0ff8,0x0c1c
000998  180c180c          DCW      0x180c,0x180c
00099c  000c001c          DCW      0x000c,0x001c
0009a0  03f80fe0          DCW      0x03f8,0x0fe0
0009a4  1e003800          DCW      0x1e00,0x3800
0009a8  30063006          DCW      0x3006,0x3006
0009ac  300e1c1c          DCW      0x300e,0x1c1c
0009b0  0ff807e0          DCW      0x0ff8,0x07e0
0009b4  00000000          DCW      0x0000,0x0000
0009b8  00000000          DCW      0x0000,0x0000
0009bc  00000000          DCW      0x0000,0x0000
0009c0  00007ffe          DCW      0x0000,0x7ffe
0009c4  7ffe0180          DCW      0x7ffe,0x0180
0009c8  01800180          DCW      0x0180,0x0180
0009cc  01800180          DCW      0x0180,0x0180
0009d0  01800180          DCW      0x0180,0x0180
0009d4  01800180          DCW      0x0180,0x0180
0009d8  01800180          DCW      0x0180,0x0180
0009dc  01800180          DCW      0x0180,0x0180
0009e0  01800180          DCW      0x0180,0x0180
0009e4  00000000          DCW      0x0000,0x0000
0009e8  00000000          DCW      0x0000,0x0000
0009ec  00000000          DCW      0x0000,0x0000
0009f0  0000300c          DCW      0x0000,0x300c
0009f4  300c300c          DCW      0x300c,0x300c
0009f8  300c300c          DCW      0x300c,0x300c
0009fc  300c300c          DCW      0x300c,0x300c
000a00  300c300c          DCW      0x300c,0x300c
000a04  300c300c          DCW      0x300c,0x300c
000a08  300c300c          DCW      0x300c,0x300c
000a0c  300c1818          DCW      0x300c,0x1818
000a10  1ff807e0          DCW      0x1ff8,0x07e0
000a14  00000000          DCW      0x0000,0x0000
000a18  00000000          DCW      0x0000,0x0000
000a1c  00000000          DCW      0x0000,0x0000
000a20  00006003          DCW      0x0000,0x6003
000a24  30063006          DCW      0x3006,0x3006
000a28  3006180c          DCW      0x3006,0x180c
000a2c  180c180c          DCW      0x180c,0x180c
000a30  0c180c18          DCW      0x0c18,0x0c18
000a34  0e380630          DCW      0x0e38,0x0630
000a38  06300770          DCW      0x0630,0x0770
000a3c  03600360          DCW      0x0360,0x0360
000a40  01c001c0          DCW      0x01c0,0x01c0
000a44  00000000          DCW      0x0000,0x0000
000a48  00000000          DCW      0x0000,0x0000
000a4c  00000000          DCW      0x0000,0x0000
000a50  00006003          DCW      0x0000,0x6003
000a54  61c361c3          DCW      0x61c3,0x61c3
000a58  61c33366          DCW      0x61c3,0x3366
000a5c  33663366          DCW      0x3366,0x3366
000a60  33663366          DCW      0x3366,0x3366
000a64  33661b6c          DCW      0x3366,0x1b6c
000a68  1b6c1b6c          DCW      0x1b6c,0x1b6c
000a6c  1a2c1e3c          DCW      0x1a2c,0x1e3c
000a70  0e380e38          DCW      0x0e38,0x0e38
000a74  00000000          DCW      0x0000,0x0000
000a78  00000000          DCW      0x0000,0x0000
000a7c  00000000          DCW      0x0000,0x0000
000a80  0000e00f          DCW      0x0000,0xe00f
000a84  700c3018          DCW      0x700c,0x3018
000a88  18300c70          DCW      0x1830,0x0c70
000a8c  0e6007c0          DCW      0x0e60,0x07c0
000a90  03800380          DCW      0x0380,0x0380
000a94  03c006e0          DCW      0x03c0,0x06e0
000a98  0c701c30          DCW      0x0c70,0x1c30
000a9c  1818300c          DCW      0x1818,0x300c
000aa0  600ee007          DCW      0x600e,0xe007
000aa4  00000000          DCW      0x0000,0x0000
000aa8  00000000          DCW      0x0000,0x0000
000aac  00000000          DCW      0x0000,0x0000
000ab0  0000c003          DCW      0x0000,0xc003
000ab4  6006300c          DCW      0x6006,0x300c
000ab8  381c1838          DCW      0x381c,0x1838
000abc  0c300660          DCW      0x0c30,0x0660
000ac0  07e003c0          DCW      0x07e0,0x03c0
000ac4  01800180          DCW      0x0180,0x0180
000ac8  01800180          DCW      0x0180,0x0180
000acc  01800180          DCW      0x0180,0x0180
000ad0  01800180          DCW      0x0180,0x0180
000ad4  00000000          DCW      0x0000,0x0000
000ad8  00000000          DCW      0x0000,0x0000
000adc  00000000          DCW      0x0000,0x0000
000ae0  00007ffc          DCW      0x0000,0x7ffc
000ae4  7ffc6000          DCW      0x7ffc,0x6000
000ae8  30001800          DCW      0x3000,0x1800
000aec  0c000600          DCW      0x0c00,0x0600
000af0  03000180          DCW      0x0300,0x0180
000af4  00c00060          DCW      0x00c0,0x0060
000af8  00300018          DCW      0x0030,0x0018
000afc  000c0006          DCW      0x000c,0x0006
000b00  7ffe7ffe          DCW      0x7ffe,0x7ffe
000b04  00000000          DCW      0x0000,0x0000
000b08  00000000          DCW      0x0000,0x0000
000b0c  00000000          DCW      0x0000,0x0000
000b10  000003e0          DCW      0x0000,0x03e0
000b14  03e00060          DCW      0x03e0,0x0060
000b18  00600060          DCW      0x0060,0x0060
000b1c  00600060          DCW      0x0060,0x0060
000b20  00600060          DCW      0x0060,0x0060
000b24  00600060          DCW      0x0060,0x0060
000b28  00600060          DCW      0x0060,0x0060
000b2c  00600060          DCW      0x0060,0x0060
000b30  00600060          DCW      0x0060,0x0060
000b34  00600060          DCW      0x0060,0x0060
000b38  006003e0          DCW      0x0060,0x03e0
000b3c  03e00000          DCW      0x03e0,0x0000
000b40  00000030          DCW      0x0000,0x0030
000b44  00300060          DCW      0x0030,0x0060
000b48  00600060          DCW      0x0060,0x0060
000b4c  00c000c0          DCW      0x00c0,0x00c0
000b50  00c001c0          DCW      0x00c0,0x01c0
000b54  01800180          DCW      0x0180,0x0180
000b58  01800300          DCW      0x0180,0x0300
000b5c  03000300          DCW      0x0300,0x0300
000b60  06000600          DCW      0x0600,0x0600
000b64  00000000          DCW      0x0000,0x0000
000b68  00000000          DCW      0x0000,0x0000
000b6c  00000000          DCW      0x0000,0x0000
000b70  000003e0          DCW      0x0000,0x03e0
000b74  03e00300          DCW      0x03e0,0x0300
000b78  03000300          DCW      0x0300,0x0300
000b7c  03000300          DCW      0x0300,0x0300
000b80  03000300          DCW      0x0300,0x0300
000b84  03000300          DCW      0x0300,0x0300
000b88  03000300          DCW      0x0300,0x0300
000b8c  03000300          DCW      0x0300,0x0300
000b90  03000300          DCW      0x0300,0x0300
000b94  03000300          DCW      0x0300,0x0300
000b98  030003e0          DCW      0x0300,0x03e0
000b9c  03e00000          DCW      0x03e0,0x0000
000ba0  00000000          DCW      0x0000,0x0000
000ba4  01c001c0          DCW      0x01c0,0x01c0
000ba8  03600360          DCW      0x0360,0x0360
000bac  03600630          DCW      0x0360,0x0630
000bb0  06300c18          DCW      0x0630,0x0c18
000bb4  0c180000          DCW      0x0c18,0x0000
000bb8  00000000          DCW      0x0000,0x0000
000bbc  00000000          DCW      0x0000,0x0000
000bc0  00000000          DCW      0x0000,0x0000
000bc4  00000000          DCW      0x0000,0x0000
000bc8  00000000          DCW      0x0000,0x0000
000bcc  00000000          DCW      0x0000,0x0000
000bd0  00000000          DCW      0x0000,0x0000
000bd4  00000000          DCW      0x0000,0x0000
000bd8  00000000          DCW      0x0000,0x0000
000bdc  00000000          DCW      0x0000,0x0000
000be0  00000000          DCW      0x0000,0x0000
000be4  00000000          DCW      0x0000,0x0000
000be8  00000000          DCW      0x0000,0x0000
000bec  00000000          DCW      0x0000,0x0000
000bf0  0000ffff          DCW      0x0000,0xffff
000bf4  ffff0000          DCW      0xffff,0x0000
000bf8  00000000          DCW      0x0000,0x0000
000bfc  00000000          DCW      0x0000,0x0000
000c00  0000000c          DCW      0x0000,0x000c
000c04  000c000c          DCW      0x000c,0x000c
000c08  000c000c          DCW      0x000c,0x000c
000c0c  000c0000          DCW      0x000c,0x0000
000c10  00000000          DCW      0x0000,0x0000
000c14  00000000          DCW      0x0000,0x0000
000c18  00000000          DCW      0x0000,0x0000
000c1c  00000000          DCW      0x0000,0x0000
000c20  00000000          DCW      0x0000,0x0000
000c24  00000000          DCW      0x0000,0x0000
000c28  00000000          DCW      0x0000,0x0000
000c2c  00000000          DCW      0x0000,0x0000
000c30  00000000          DCW      0x0000,0x0000
000c34  00000000          DCW      0x0000,0x0000
000c38  00000000          DCW      0x0000,0x0000
000c3c  03f007f8          DCW      0x03f0,0x07f8
000c40  0c1c0c0c          DCW      0x0c1c,0x0c0c
000c44  0f000ff0          DCW      0x0f00,0x0ff0
000c48  0cf80c0c          DCW      0x0cf8,0x0c0c
000c4c  0c0c0f1c          DCW      0x0c0c,0x0f1c
000c50  0ff818f0          DCW      0x0ff8,0x18f0
000c54  00000000          DCW      0x0000,0x0000
000c58  00000000          DCW      0x0000,0x0000
000c5c  00000000          DCW      0x0000,0x0000
000c60  00000018          DCW      0x0000,0x0018
000c64  00180018          DCW      0x0018,0x0018
000c68  00180018          DCW      0x0018,0x0018
000c6c  03d80ff8          DCW      0x03d8,0x0ff8
000c70  0c381818          DCW      0x0c38,0x1818
000c74  18181818          DCW      0x1818,0x1818
000c78  18181818          DCW      0x1818,0x1818
000c7c  18180c38          DCW      0x1818,0x0c38
000c80  0ff803d8          DCW      0x0ff8,0x03d8
000c84  00000000          DCW      0x0000,0x0000
000c88  00000000          DCW      0x0000,0x0000
000c8c  00000000          DCW      0x0000,0x0000
000c90  00000000          DCW      0x0000,0x0000
000c94  00000000          DCW      0x0000,0x0000
000c98  00000000          DCW      0x0000,0x0000
000c9c  03c007f0          DCW      0x03c0,0x07f0
000ca0  0e300c18          DCW      0x0e30,0x0c18
000ca4  00180018          DCW      0x0018,0x0018
000ca8  00180018          DCW      0x0018,0x0018
000cac  0c180e30          DCW      0x0c18,0x0e30
000cb0  07f003c0          DCW      0x07f0,0x03c0
000cb4  00000000          DCW      0x0000,0x0000
000cb8  00000000          DCW      0x0000,0x0000
000cbc  00000000          DCW      0x0000,0x0000
000cc0  00001800          DCW      0x0000,0x1800
000cc4  18001800          DCW      0x1800,0x1800
000cc8  18001800          DCW      0x1800,0x1800
000ccc  1bc01ff0          DCW      0x1bc0,0x1ff0
000cd0  1c301818          DCW      0x1c30,0x1818
000cd4  18181818          DCW      0x1818,0x1818
000cd8  18181818          DCW      0x1818,0x1818
000cdc  18181c30          DCW      0x1818,0x1c30
000ce0  1ff01bc0          DCW      0x1ff0,0x1bc0
000ce4  00000000          DCW      0x0000,0x0000
000ce8  00000000          DCW      0x0000,0x0000
000cec  00000000          DCW      0x0000,0x0000
000cf0  00000000          DCW      0x0000,0x0000
000cf4  00000000          DCW      0x0000,0x0000
000cf8  00000000          DCW      0x0000,0x0000
000cfc  03c00ff0          DCW      0x03c0,0x0ff0
000d00  0c301818          DCW      0x0c30,0x1818
000d04  1ff81ff8          DCW      0x1ff8,0x1ff8
000d08  00180018          DCW      0x0018,0x0018
000d0c  18381c30          DCW      0x1838,0x1c30
000d10  0ff007c0          DCW      0x0ff0,0x07c0
000d14  00000000          DCW      0x0000,0x0000
000d18  00000000          DCW      0x0000,0x0000
000d1c  00000000          DCW      0x0000,0x0000
000d20  00000f80          DCW      0x0000,0x0f80
000d24  0fc000c0          DCW      0x0fc0,0x00c0
000d28  00c000c0          DCW      0x00c0,0x00c0
000d2c  07f007f0          DCW      0x07f0,0x07f0
000d30  00c000c0          DCW      0x00c0,0x00c0
000d34  00c000c0          DCW      0x00c0,0x00c0
000d38  00c000c0          DCW      0x00c0,0x00c0
000d3c  00c000c0          DCW      0x00c0,0x00c0
000d40  00c000c0          DCW      0x00c0,0x00c0
000d44  00000000          DCW      0x0000,0x0000
000d48  00000000          DCW      0x0000,0x0000
000d4c  00000000          DCW      0x0000,0x0000
000d50  00000000          DCW      0x0000,0x0000
000d54  00000000          DCW      0x0000,0x0000
000d58  00000000          DCW      0x0000,0x0000
000d5c  0de00ff8          DCW      0x0de0,0x0ff8
000d60  0e180c0c          DCW      0x0e18,0x0c0c
000d64  0c0c0c0c          DCW      0x0c0c,0x0c0c
000d68  0c0c0c0c          DCW      0x0c0c,0x0c0c
000d6c  0c0c0e18          DCW      0x0c0c,0x0e18
000d70  0ff80de0          DCW      0x0ff8,0x0de0
000d74  0c000c0c          DCW      0x0c00,0x0c0c
000d78  061c07f8          DCW      0x061c,0x07f8
000d7c  01f00000          DCW      0x01f0,0x0000
000d80  00000018          DCW      0x0000,0x0018
000d84  00180018          DCW      0x0018,0x0018
000d88  00180018          DCW      0x0018,0x0018
000d8c  07d80ff8          DCW      0x07d8,0x0ff8
000d90  1c381818          DCW      0x1c38,0x1818
000d94  18181818          DCW      0x1818,0x1818
000d98  18181818          DCW      0x1818,0x1818
000d9c  18181818          DCW      0x1818,0x1818
000da0  18181818          DCW      0x1818,0x1818
000da4  00000000          DCW      0x0000,0x0000
000da8  00000000          DCW      0x0000,0x0000
000dac  00000000          DCW      0x0000,0x0000
000db0  000000c0          DCW      0x0000,0x00c0
000db4  00c00000          DCW      0x00c0,0x0000
000db8  00000000          DCW      0x0000,0x0000
000dbc  00c000c0          DCW      0x00c0,0x00c0
000dc0  00c000c0          DCW      0x00c0,0x00c0
000dc4  00c000c0          DCW      0x00c0,0x00c0
000dc8  00c000c0          DCW      0x00c0,0x00c0
000dcc  00c000c0          DCW      0x00c0,0x00c0
000dd0  00c000c0          DCW      0x00c0,0x00c0
000dd4  00000000          DCW      0x0000,0x0000
000dd8  00000000          DCW      0x0000,0x0000
000ddc  00000000          DCW      0x0000,0x0000
000de0  000000c0          DCW      0x0000,0x00c0
000de4  00c00000          DCW      0x00c0,0x0000
000de8  00000000          DCW      0x0000,0x0000
000dec  00c000c0          DCW      0x00c0,0x00c0
000df0  00c000c0          DCW      0x00c0,0x00c0
000df4  00c000c0          DCW      0x00c0,0x00c0
000df8  00c000c0          DCW      0x00c0,0x00c0
000dfc  00c000c0          DCW      0x00c0,0x00c0
000e00  00c000c0          DCW      0x00c0,0x00c0
000e04  00c000c0          DCW      0x00c0,0x00c0
000e08  00c000f8          DCW      0x00c0,0x00f8
000e0c  00780000          DCW      0x0078,0x0000
000e10  0000000c          DCW      0x0000,0x000c
000e14  000c000c          DCW      0x000c,0x000c
000e18  000c000c          DCW      0x000c,0x000c
000e1c  0c0c060c          DCW      0x0c0c,0x060c
000e20  030c018c          DCW      0x030c,0x018c
000e24  00cc006c          DCW      0x00cc,0x006c
000e28  00fc019c          DCW      0x00fc,0x019c
000e2c  038c030c          DCW      0x038c,0x030c
000e30  060c0c0c          DCW      0x060c,0x0c0c
000e34  00000000          DCW      0x0000,0x0000
000e38  00000000          DCW      0x0000,0x0000
000e3c  00000000          DCW      0x0000,0x0000
000e40  000000c0          DCW      0x0000,0x00c0
000e44  00c000c0          DCW      0x00c0,0x00c0
000e48  00c000c0          DCW      0x00c0,0x00c0
000e4c  00c000c0          DCW      0x00c0,0x00c0
000e50  00c000c0          DCW      0x00c0,0x00c0
000e54  00c000c0          DCW      0x00c0,0x00c0
000e58  00c000c0          DCW      0x00c0,0x00c0
000e5c  00c000c0          DCW      0x00c0,0x00c0
000e60  00c000c0          DCW      0x00c0,0x00c0
000e64  00000000          DCW      0x0000,0x0000
000e68  00000000          DCW      0x0000,0x0000
000e6c  00000000          DCW      0x0000,0x0000
000e70  00000000          DCW      0x0000,0x0000
000e74  00000000          DCW      0x0000,0x0000
000e78  00000000          DCW      0x0000,0x0000
000e7c  3c7c7eff          DCW      0x3c7c,0x7eff
000e80  e3c7c183          DCW      0xe3c7,0xc183
000e84  c183c183          DCW      0xc183,0xc183
000e88  c183c183          DCW      0xc183,0xc183
000e8c  c183c183          DCW      0xc183,0xc183
000e90  c183c183          DCW      0xc183,0xc183
000e94  00000000          DCW      0x0000,0x0000
000e98  00000000          DCW      0x0000,0x0000
000e9c  00000000          DCW      0x0000,0x0000
000ea0  00000000          DCW      0x0000,0x0000
000ea4  00000000          DCW      0x0000,0x0000
000ea8  00000000          DCW      0x0000,0x0000
000eac  07980ff8          DCW      0x0798,0x0ff8
000eb0  1c381818          DCW      0x1c38,0x1818
000eb4  18181818          DCW      0x1818,0x1818
000eb8  18181818          DCW      0x1818,0x1818
000ebc  18181818          DCW      0x1818,0x1818
000ec0  18181818          DCW      0x1818,0x1818
000ec4  00000000          DCW      0x0000,0x0000
000ec8  00000000          DCW      0x0000,0x0000
000ecc  00000000          DCW      0x0000,0x0000
000ed0  00000000          DCW      0x0000,0x0000
000ed4  00000000          DCW      0x0000,0x0000
000ed8  00000000          DCW      0x0000,0x0000
000edc  03c00ff0          DCW      0x03c0,0x0ff0
000ee0  0c301818          DCW      0x0c30,0x1818
000ee4  18181818          DCW      0x1818,0x1818
000ee8  18181818          DCW      0x1818,0x1818
000eec  18180c30          DCW      0x1818,0x0c30
000ef0  0ff003c0          DCW      0x0ff0,0x03c0
000ef4  00000000          DCW      0x0000,0x0000
000ef8  00000000          DCW      0x0000,0x0000
000efc  00000000          DCW      0x0000,0x0000
000f00  00000000          DCW      0x0000,0x0000
000f04  00000000          DCW      0x0000,0x0000
000f08  00000000          DCW      0x0000,0x0000
000f0c  03d80ff8          DCW      0x03d8,0x0ff8
000f10  0c381818          DCW      0x0c38,0x1818
000f14  18181818          DCW      0x1818,0x1818
000f18  18181818          DCW      0x1818,0x1818
000f1c  18180c38          DCW      0x1818,0x0c38
000f20  0ff803d8          DCW      0x0ff8,0x03d8
000f24  00180018          DCW      0x0018,0x0018
000f28  00180018          DCW      0x0018,0x0018
000f2c  00180000          DCW      0x0018,0x0000
000f30  00000000          DCW      0x0000,0x0000
000f34  00000000          DCW      0x0000,0x0000
000f38  00000000          DCW      0x0000,0x0000
000f3c  1bc01ff0          DCW      0x1bc0,0x1ff0
000f40  1c301818          DCW      0x1c30,0x1818
000f44  18181818          DCW      0x1818,0x1818
000f48  18181818          DCW      0x1818,0x1818
000f4c  18181c30          DCW      0x1818,0x1c30
000f50  1ff01bc0          DCW      0x1ff0,0x1bc0
000f54  18001800          DCW      0x1800,0x1800
000f58  18001800          DCW      0x1800,0x1800
000f5c  18000000          DCW      0x1800,0x0000
000f60  00000000          DCW      0x0000,0x0000
000f64  00000000          DCW      0x0000,0x0000
000f68  00000000          DCW      0x0000,0x0000
000f6c  07b003f0          DCW      0x07b0,0x03f0
000f70  00700030          DCW      0x0070,0x0030
000f74  00300030          DCW      0x0030,0x0030
000f78  00300030          DCW      0x0030,0x0030
000f7c  00300030          DCW      0x0030,0x0030
000f80  00300030          DCW      0x0030,0x0030
000f84  00000000          DCW      0x0000,0x0000
000f88  00000000          DCW      0x0000,0x0000
000f8c  00000000          DCW      0x0000,0x0000
000f90  00000000          DCW      0x0000,0x0000
000f94  00000000          DCW      0x0000,0x0000
000f98  00000000          DCW      0x0000,0x0000
000f9c  03e003f0          DCW      0x03e0,0x03f0
000fa0  0e380c18          DCW      0x0e38,0x0c18
000fa4  003803f0          DCW      0x0038,0x03f0
000fa8  07c00c00          DCW      0x07c0,0x0c00
000fac  0c180e38          DCW      0x0c18,0x0e38
000fb0  07f003e0          DCW      0x07f0,0x03e0
000fb4  00000000          DCW      0x0000,0x0000
000fb8  00000000          DCW      0x0000,0x0000
000fbc  00000000          DCW      0x0000,0x0000
000fc0  00000000          DCW      0x0000,0x0000
000fc4  008000c0          DCW      0x0080,0x00c0
000fc8  00c000c0          DCW      0x00c0,0x00c0
000fcc  07f007f0          DCW      0x07f0,0x07f0
000fd0  00c000c0          DCW      0x00c0,0x00c0
000fd4  00c000c0          DCW      0x00c0,0x00c0
000fd8  00c000c0          DCW      0x00c0,0x00c0
000fdc  00c000c0          DCW      0x00c0,0x00c0
000fe0  07c00780          DCW      0x07c0,0x0780
000fe4  00000000          DCW      0x0000,0x0000
000fe8  00000000          DCW      0x0000,0x0000
000fec  00000000          DCW      0x0000,0x0000
000ff0  00000000          DCW      0x0000,0x0000
000ff4  00000000          DCW      0x0000,0x0000
000ff8  00000000          DCW      0x0000,0x0000
000ffc  18181818          DCW      0x1818,0x1818
001000  18181818          DCW      0x1818,0x1818
001004  18181818          DCW      0x1818,0x1818
001008  18181818          DCW      0x1818,0x1818
00100c  18181c38          DCW      0x1818,0x1c38
001010  1ff019e0          DCW      0x1ff0,0x19e0
001014  00000000          DCW      0x0000,0x0000
001018  00000000          DCW      0x0000,0x0000
00101c  00000000          DCW      0x0000,0x0000
001020  00000000          DCW      0x0000,0x0000
001024  00000000          DCW      0x0000,0x0000
001028  00000000          DCW      0x0000,0x0000
00102c  180c0c18          DCW      0x180c,0x0c18
001030  0c180c18          DCW      0x0c18,0x0c18
001034  06300630          DCW      0x0630,0x0630
001038  06300360          DCW      0x0630,0x0360
00103c  03600360          DCW      0x0360,0x0360
001040  01c001c0          DCW      0x01c0,0x01c0
001044  00000000          DCW      0x0000,0x0000
001048  00000000          DCW      0x0000,0x0000
00104c  00000000          DCW      0x0000,0x0000
001050  00000000          DCW      0x0000,0x0000
001054  00000000          DCW      0x0000,0x0000
001058  00000000          DCW      0x0000,0x0000
00105c  41c141c1          DCW      0x41c1,0x41c1
001060  61c36363          DCW      0x61c3,0x6363
001064  63636363          DCW      0x6363,0x6363
001068  36363636          DCW      0x3636,0x3636
00106c  36361c1c          DCW      0x3636,0x1c1c
001070  1c1c1c1c          DCW      0x1c1c,0x1c1c
001074  00000000          DCW      0x0000,0x0000
001078  00000000          DCW      0x0000,0x0000
00107c  00000000          DCW      0x0000,0x0000
001080  00000000          DCW      0x0000,0x0000
001084  00000000          DCW      0x0000,0x0000
001088  00000000          DCW      0x0000,0x0000
00108c  381c1c38          DCW      0x381c,0x1c38
001090  0c300660          DCW      0x0c30,0x0660
001094  03600360          DCW      0x0360,0x0360
001098  03600360          DCW      0x0360,0x0360
00109c  06600c30          DCW      0x0660,0x0c30
0010a0  1c38381c          DCW      0x1c38,0x381c
0010a4  00000000          DCW      0x0000,0x0000
0010a8  00000000          DCW      0x0000,0x0000
0010ac  00000000          DCW      0x0000,0x0000
0010b0  00000000          DCW      0x0000,0x0000
0010b4  00000000          DCW      0x0000,0x0000
0010b8  00000000          DCW      0x0000,0x0000
0010bc  30181830          DCW      0x3018,0x1830
0010c0  18301870          DCW      0x1830,0x1870
0010c4  0c600c60          DCW      0x0c60,0x0c60
0010c8  0ce006c0          DCW      0x0ce0,0x06c0
0010cc  06c00380          DCW      0x06c0,0x0380
0010d0  03800380          DCW      0x0380,0x0380
0010d4  01800180          DCW      0x0180,0x0180
0010d8  01c000f0          DCW      0x01c0,0x00f0
0010dc  00700000          DCW      0x0070,0x0000
0010e0  00000000          DCW      0x0000,0x0000
0010e4  00000000          DCW      0x0000,0x0000
0010e8  00000000          DCW      0x0000,0x0000
0010ec  1ffc1ffc          DCW      0x1ffc,0x1ffc
0010f0  0c000600          DCW      0x0c00,0x0600
0010f4  03000180          DCW      0x0300,0x0180
0010f8  00c00060          DCW      0x00c0,0x0060
0010fc  00300018          DCW      0x0030,0x0018
001100  1ffc1ffc          DCW      0x1ffc,0x1ffc
001104  00000000          DCW      0x0000,0x0000
001108  00000000          DCW      0x0000,0x0000
00110c  00000000          DCW      0x0000,0x0000
001110  00000300          DCW      0x0000,0x0300
001114  018000c0          DCW      0x0180,0x00c0
001118  00c000c0          DCW      0x00c0,0x00c0
00111c  00c000c0          DCW      0x00c0,0x00c0
001120  00c00060          DCW      0x00c0,0x0060
001124  00600030          DCW      0x0060,0x0030
001128  00600040          DCW      0x0060,0x0040
00112c  00c000c0          DCW      0x00c0,0x00c0
001130  00c000c0          DCW      0x00c0,0x00c0
001134  00c000c0          DCW      0x00c0,0x00c0
001138  01800300          DCW      0x0180,0x0300
00113c  00000000          DCW      0x0000,0x0000
001140  00000180          DCW      0x0000,0x0180
001144  01800180          DCW      0x0180,0x0180
001148  01800180          DCW      0x0180,0x0180
00114c  01800180          DCW      0x0180,0x0180
001150  01800180          DCW      0x0180,0x0180
001154  01800180          DCW      0x0180,0x0180
001158  01800180          DCW      0x0180,0x0180
00115c  01800180          DCW      0x0180,0x0180
001160  01800180          DCW      0x0180,0x0180
001164  01800180          DCW      0x0180,0x0180
001168  01800180          DCW      0x0180,0x0180
00116c  01800000          DCW      0x0180,0x0000
001170  00000060          DCW      0x0000,0x0060
001174  00c001c0          DCW      0x00c0,0x01c0
001178  01800180          DCW      0x0180,0x0180
00117c  01800180          DCW      0x0180,0x0180
001180  01800300          DCW      0x0180,0x0300
001184  03000600          DCW      0x0300,0x0600
001188  03000100          DCW      0x0300,0x0100
00118c  01800180          DCW      0x0180,0x0180
001190  01800180          DCW      0x0180,0x0180
001194  01800180          DCW      0x0180,0x0180
001198  00c00060          DCW      0x00c0,0x0060
00119c  00000000          DCW      0x0000,0x0000
0011a0  00000000          DCW      0x0000,0x0000
0011a4  00000000          DCW      0x0000,0x0000
0011a8  00000000          DCW      0x0000,0x0000
0011ac  00000000          DCW      0x0000,0x0000
0011b0  10f01ff8          DCW      0x10f0,0x1ff8
0011b4  0f080000          DCW      0x0f08,0x0000
0011b8  00000000          DCW      0x0000,0x0000
0011bc  00000000          DCW      0x0000,0x0000
0011c0  00000000          DCW      0x0000,0x0000
0011c4  00000000          DCW      0x0000,0x0000
0011c8  00000000          DCW      0x0000,0x0000
0011cc  00000000          DCW      0x0000,0x0000

                          AREA ||.data||, DATA, ALIGN=1

                  s_Transparent
000000  0000              DCB      0x00,0x00
                  s_TextColor
000002  0000              DCW      0x0000
                  s_BackColor
000004  ffff              DCW      0xffff
